ARM GAS  C:\Users\Anton\AppData\Local\Temp\ccPN9NCb.s 			page 1


   1              		.syntax unified
   2              		.cpu cortex-m3
   3              		.fpu softvfp
   4              		.eabi_attribute 20, 1
   5              		.eabi_attribute 21, 1
   6              		.eabi_attribute 23, 3
   7              		.eabi_attribute 24, 1
   8              		.eabi_attribute 25, 1
   9              		.eabi_attribute 26, 1
  10              		.eabi_attribute 30, 1
  11              		.eabi_attribute 34, 1
  12              		.eabi_attribute 18, 4
  13              		.thumb
  14              		.syntax unified
  15              		.file	"UltrasonicSensor.c"
  16              		.text
  17              	.Ltext0:
  18              		.cfi_sections	.debug_frame
  19              		.global	__aeabi_i2f
  20              		.global	__aeabi_fdiv
  21              		.global	__aeabi_f2d
  22              		.global	__aeabi_dadd
  23              		.global	__aeabi_ddiv
  24              		.global	__aeabi_d2f
  25              		.section	.text.Falling_ISR_addr,"ax",%progbits
  26              		.align	2
  27              		.global	Falling_ISR_addr
  28              		.thumb
  29              		.thumb_func
  30              		.type	Falling_ISR_addr, %function
  31              	Falling_ISR_addr:
  32              	.LFB63:
  33              		.file 1 "..\\..\\..\\Software\\UltrasonicSensor.c"
   1:..\..\..\Software/UltrasonicSensor.c **** 
   2:..\..\..\Software/UltrasonicSensor.c **** #include <stdint.h>
   3:..\..\..\Software/UltrasonicSensor.c **** #include "project.h"
   4:..\..\..\Software/UltrasonicSensor.c **** #include "UltrasonicSensor.h"
   5:..\..\..\Software/UltrasonicSensor.c **** 
   6:..\..\..\Software/UltrasonicSensor.c **** CY_ISR(Falling_ISR_addr) {
  34              		.loc 1 6 0
  35              		.cfi_startproc
  36              		@ args = 0, pretend = 0, frame = 0
  37              		@ frame_needed = 0, uses_anonymous_args = 0
  38 0000 10B5     		push	{r4, lr}
  39              		.cfi_def_cfa_offset 8
  40              		.cfi_offset 4, -8
  41              		.cfi_offset 14, -4
   7:..\..\..\Software/UltrasonicSensor.c ****     uint16_t counter_diff_ = Counter_1_ReadPeriod() - Counter_1_ReadCounter();
  42              		.loc 1 7 0
  43 0002 FFF7FEFF 		bl	Counter_1_ReadPeriod
  44              	.LVL0:
  45 0006 0446     		mov	r4, r0
  46 0008 FFF7FEFF 		bl	Counter_1_ReadCounter
  47              	.LVL1:
  48 000c 201A     		subs	r0, r4, r0
  49 000e 80B2     		uxth	r0, r0
  50              	.LVL2:
ARM GAS  C:\Users\Anton\AppData\Local\Temp\ccPN9NCb.s 			page 2


   8:..\..\..\Software/UltrasonicSensor.c ****     float pw_us = 1000000 * counter_diff_ / (float)CLOCK_FREQ;
  51              		.loc 1 8 0
  52 0010 114B     		ldr	r3, .L3+16
  53 0012 03FB00F0 		mul	r0, r3, r0
  54              	.LVL3:
  55 0016 FFF7FEFF 		bl	__aeabi_i2f
  56              	.LVL4:
  57 001a 1049     		ldr	r1, .L3+20
  58 001c FFF7FEFF 		bl	__aeabi_fdiv
  59              	.LVL5:
   9:..\..\..\Software/UltrasonicSensor.c ****     Ultrasonic.dist_ = REGRESSION(pw_us);
  60              		.loc 1 9 0
  61 0020 FFF7FEFF 		bl	__aeabi_f2d
  62              	.LVL6:
  63 0024 08A3     		adr	r3, .L3
  64 0026 D3E90023 		ldrd	r2, [r3]
  65 002a FFF7FEFF 		bl	__aeabi_dadd
  66              	.LVL7:
  67 002e 08A3     		adr	r3, .L3+8
  68 0030 D3E90023 		ldrd	r2, [r3]
  69 0034 FFF7FEFF 		bl	__aeabi_ddiv
  70              	.LVL8:
  71 0038 FFF7FEFF 		bl	__aeabi_d2f
  72              	.LVL9:
  73 003c 084B     		ldr	r3, .L3+24
  74 003e 1860     		str	r0, [r3]	@ float
  10:..\..\..\Software/UltrasonicSensor.c ****     Echo_ClearInterrupt();
  75              		.loc 1 10 0
  76 0040 FFF7FEFF 		bl	Echo_ClearInterrupt
  77              	.LVL10:
  78 0044 10BD     		pop	{r4, pc}
  79              	.L4:
  80 0046 00BF     		.align	3
  81              	.L3:
  82 0048 88855AD3 		.word	-749042296
  83 004c BCE30740 		.word	1074258876
  84 0050 AAF1D24D 		.word	1305670058
  85 0054 62904B40 		.word	1078693986
  86 0058 40420F00 		.word	1000000
  87 005c 0050C347 		.word	1203982336
  88 0060 00000000 		.word	.LANCHOR0
  89              		.cfi_endproc
  90              	.LFE63:
  91              		.size	Falling_ISR_addr, .-Falling_ISR_addr
  92              		.section	.text.Init,"ax",%progbits
  93              		.align	2
  94              		.global	Init
  95              		.thumb
  96              		.thumb_func
  97              		.type	Init, %function
  98              	Init:
  99              	.LFB64:
  11:..\..\..\Software/UltrasonicSensor.c **** }
  12:..\..\..\Software/UltrasonicSensor.c **** 
  13:..\..\..\Software/UltrasonicSensor.c **** void Init(void) {
 100              		.loc 1 13 0
 101              		.cfi_startproc
ARM GAS  C:\Users\Anton\AppData\Local\Temp\ccPN9NCb.s 			page 3


 102              		@ args = 0, pretend = 0, frame = 0
 103              		@ frame_needed = 0, uses_anonymous_args = 0
 104 0000 08B5     		push	{r3, lr}
 105              		.cfi_def_cfa_offset 8
 106              		.cfi_offset 3, -8
 107              		.cfi_offset 14, -4
  14:..\..\..\Software/UltrasonicSensor.c ****     Ultrasonic.dist_ = 0;
 108              		.loc 1 14 0
 109 0002 0022     		movs	r2, #0
 110 0004 044B     		ldr	r3, .L7
 111 0006 1A60     		str	r2, [r3]	@ float
  15:..\..\..\Software/UltrasonicSensor.c ****     
  16:..\..\..\Software/UltrasonicSensor.c ****     Counter_1_Start();
 112              		.loc 1 16 0
 113 0008 FFF7FEFF 		bl	Counter_1_Start
 114              	.LVL11:
  17:..\..\..\Software/UltrasonicSensor.c ****     PWM_1_Start();
 115              		.loc 1 17 0
 116 000c FFF7FEFF 		bl	PWM_1_Start
 117              	.LVL12:
  18:..\..\..\Software/UltrasonicSensor.c ****     Falling_ISR_StartEx(Falling_ISR_addr);
 118              		.loc 1 18 0
 119 0010 0248     		ldr	r0, .L7+4
 120 0012 FFF7FEFF 		bl	Falling_ISR_StartEx
 121              	.LVL13:
 122 0016 08BD     		pop	{r3, pc}
 123              	.L8:
 124              		.align	2
 125              	.L7:
 126 0018 00000000 		.word	.LANCHOR0
 127 001c 00000000 		.word	Falling_ISR_addr
 128              		.cfi_endproc
 129              	.LFE64:
 130              		.size	Init, .-Init
 131              		.section	.text.ReadDist,"ax",%progbits
 132              		.align	2
 133              		.global	ReadDist
 134              		.thumb
 135              		.thumb_func
 136              		.type	ReadDist, %function
 137              	ReadDist:
 138              	.LFB65:
  19:..\..\..\Software/UltrasonicSensor.c **** }
  20:..\..\..\Software/UltrasonicSensor.c **** 
  21:..\..\..\Software/UltrasonicSensor.c **** void ReadDist(void) {
 139              		.loc 1 21 0
 140              		.cfi_startproc
 141              		@ args = 0, pretend = 0, frame = 0
 142              		@ frame_needed = 0, uses_anonymous_args = 0
 143 0000 08B5     		push	{r3, lr}
 144              		.cfi_def_cfa_offset 8
 145              		.cfi_offset 3, -8
 146              		.cfi_offset 14, -4
  22:..\..\..\Software/UltrasonicSensor.c ****     Trig_Write(1);
 147              		.loc 1 22 0
 148 0002 0120     		movs	r0, #1
 149 0004 FFF7FEFF 		bl	Trig_Write
ARM GAS  C:\Users\Anton\AppData\Local\Temp\ccPN9NCb.s 			page 4


 150              	.LVL14:
  23:..\..\..\Software/UltrasonicSensor.c ****     CyDelayUs(10);
 151              		.loc 1 23 0
 152 0008 0A20     		movs	r0, #10
 153 000a FFF7FEFF 		bl	CyDelayUs
 154              	.LVL15:
  24:..\..\..\Software/UltrasonicSensor.c ****     Trig_Write(0);
 155              		.loc 1 24 0
 156 000e 0020     		movs	r0, #0
 157 0010 FFF7FEFF 		bl	Trig_Write
 158              	.LVL16:
 159 0014 08BD     		pop	{r3, pc}
 160              		.cfi_endproc
 161              	.LFE65:
 162              		.size	ReadDist, .-ReadDist
 163              		.global	Ultrasonic
 164 0016 00BF     		.data
 165              		.align	2
 166              		.set	.LANCHOR0,. + 0
 167              		.type	Ultrasonic, %object
 168              		.size	Ultrasonic, 12
 169              	Ultrasonic:
 170 0000 00000000 		.space	4
 171 0004 00000000 		.word	Init
 172 0008 00000000 		.word	ReadDist
 173              		.text
 174              	.Letext0:
 175              		.file 2 "c:\\program files (x86)\\cypress\\psoc creator\\4.3\\psoc creator\\import\\gnu\\arm\\5.4.
 176              		.file 3 "c:\\program files (x86)\\cypress\\psoc creator\\4.3\\psoc creator\\import\\gnu\\arm\\5.4.
 177              		.file 4 "..\\..\\..\\Software\\UltrasonicSensor.h"
 178              		.file 5 "Generated_Source\\PSoC5/core_cm3.h"
 179              		.file 6 "Generated_Source\\PSoC5/Counter_1.h"
 180              		.file 7 "Generated_Source\\PSoC5/Echo.h"
 181              		.file 8 "Generated_Source\\PSoC5/PWM_1.h"
 182              		.file 9 "Generated_Source\\PSoC5/Falling_ISR.h"
 183              		.file 10 "Generated_Source\\PSoC5/Trig.h"
 184              		.file 11 "Generated_Source\\PSoC5/CyLib.h"