
PanController.elf:     file format elf32-avr

Sections:
Idx Name          Size      VMA       LMA       File off  Algn
  0 .data         00000002  00800100  000010a2  00001136  2**0
                  CONTENTS, ALLOC, LOAD, DATA
  1 .text         000010a2  00000000  00000000  00000094  2**1
                  CONTENTS, ALLOC, LOAD, READONLY, CODE
  2 .bss          00000029  00800102  00800102  00001138  2**0
                  ALLOC
  3 .comment      00000030  00000000  00000000  00001138  2**0
                  CONTENTS, READONLY
  4 .note.gnu.avr.deviceinfo 00000040  00000000  00000000  00001168  2**2
                  CONTENTS, READONLY
  5 .debug_aranges 000000e8  00000000  00000000  000011a8  2**0
                  CONTENTS, READONLY, DEBUGGING
  6 .debug_info   00001067  00000000  00000000  00001290  2**0
                  CONTENTS, READONLY, DEBUGGING
  7 .debug_abbrev 00000955  00000000  00000000  000022f7  2**0
                  CONTENTS, READONLY, DEBUGGING
  8 .debug_line   00000bc9  00000000  00000000  00002c4c  2**0
                  CONTENTS, READONLY, DEBUGGING
  9 .debug_frame  0000030c  00000000  00000000  00003818  2**2
                  CONTENTS, READONLY, DEBUGGING
 10 .debug_str    0000080b  00000000  00000000  00003b24  2**0
                  CONTENTS, READONLY, DEBUGGING
 11 .debug_loc    0000076b  00000000  00000000  0000432f  2**0
                  CONTENTS, READONLY, DEBUGGING
 12 .debug_ranges 000000c0  00000000  00000000  00004a9a  2**0
                  CONTENTS, READONLY, DEBUGGING

Disassembly of section .text:

00000000 <__vectors>:
       0:	0c 94 34 00 	jmp	0x68	; 0x68 <__ctors_end>
       4:	0c 94 d0 02 	jmp	0x5a0	; 0x5a0 <__vector_1>
       8:	0c 94 51 00 	jmp	0xa2	; 0xa2 <__bad_interrupt>
       c:	0c 94 18 01 	jmp	0x230	; 0x230 <__vector_3>
      10:	0c 94 51 00 	jmp	0xa2	; 0xa2 <__bad_interrupt>
      14:	0c 94 4c 04 	jmp	0x898	; 0x898 <__vector_5>
      18:	0c 94 51 00 	jmp	0xa2	; 0xa2 <__bad_interrupt>
      1c:	0c 94 51 00 	jmp	0xa2	; 0xa2 <__bad_interrupt>
      20:	0c 94 51 00 	jmp	0xa2	; 0xa2 <__bad_interrupt>
      24:	0c 94 ea 04 	jmp	0x9d4	; 0x9d4 <__vector_9>
      28:	0c 94 51 00 	jmp	0xa2	; 0xa2 <__bad_interrupt>
      2c:	0c 94 51 00 	jmp	0xa2	; 0xa2 <__bad_interrupt>
      30:	0c 94 51 00 	jmp	0xa2	; 0xa2 <__bad_interrupt>
      34:	0c 94 ff 05 	jmp	0xbfe	; 0xbfe <__vector_13>
      38:	0c 94 51 00 	jmp	0xa2	; 0xa2 <__bad_interrupt>
      3c:	0c 94 51 00 	jmp	0xa2	; 0xa2 <__bad_interrupt>
      40:	0c 94 51 00 	jmp	0xa2	; 0xa2 <__bad_interrupt>
      44:	0c 94 51 00 	jmp	0xa2	; 0xa2 <__bad_interrupt>
      48:	0c 94 51 00 	jmp	0xa2	; 0xa2 <__bad_interrupt>
      4c:	0c 94 51 00 	jmp	0xa2	; 0xa2 <__bad_interrupt>
      50:	0c 94 51 00 	jmp	0xa2	; 0xa2 <__bad_interrupt>
      54:	0c 94 54 01 	jmp	0x2a8	; 0x2a8 <__vector_21>
      58:	0c 94 51 00 	jmp	0xa2	; 0xa2 <__bad_interrupt>
      5c:	0c 94 51 00 	jmp	0xa2	; 0xa2 <__bad_interrupt>
      60:	0c 94 51 00 	jmp	0xa2	; 0xa2 <__bad_interrupt>
      64:	0c 94 51 00 	jmp	0xa2	; 0xa2 <__bad_interrupt>

00000068 <__ctors_end>:
      68:	11 24       	eor	r1, r1
      6a:	1f be       	out	0x3f, r1	; 63
      6c:	cf ef       	ldi	r28, 0xFF	; 255
      6e:	d8 e0       	ldi	r29, 0x08	; 8
      70:	de bf       	out	0x3e, r29	; 62
      72:	cd bf       	out	0x3d, r28	; 61

00000074 <__do_copy_data>:
      74:	11 e0       	ldi	r17, 0x01	; 1
      76:	a0 e0       	ldi	r26, 0x00	; 0
      78:	b1 e0       	ldi	r27, 0x01	; 1
      7a:	e2 ea       	ldi	r30, 0xA2	; 162
      7c:	f0 e1       	ldi	r31, 0x10	; 16
      7e:	02 c0       	rjmp	.+4      	; 0x84 <__do_copy_data+0x10>
      80:	05 90       	lpm	r0, Z+
      82:	0d 92       	st	X+, r0
      84:	a2 30       	cpi	r26, 0x02	; 2
      86:	b1 07       	cpc	r27, r17
      88:	d9 f7       	brne	.-10     	; 0x80 <__do_copy_data+0xc>

0000008a <__do_clear_bss>:
      8a:	21 e0       	ldi	r18, 0x01	; 1
      8c:	a2 e0       	ldi	r26, 0x02	; 2
      8e:	b1 e0       	ldi	r27, 0x01	; 1
      90:	01 c0       	rjmp	.+2      	; 0x94 <.do_clear_bss_start>

00000092 <.do_clear_bss_loop>:
      92:	1d 92       	st	X+, r1

00000094 <.do_clear_bss_start>:
      94:	ab 32       	cpi	r26, 0x2B	; 43
      96:	b2 07       	cpc	r27, r18
      98:	e1 f7       	brne	.-8      	; 0x92 <.do_clear_bss_loop>
      9a:	0e 94 a2 05 	call	0xb44	; 0xb44 <main>
      9e:	0c 94 4f 08 	jmp	0x109e	; 0x109e <_exit>

000000a2 <__bad_interrupt>:
      a2:	0c 94 00 00 	jmp	0	; 0x0 <__vectors>

000000a6 <I2C_SLAVE_sendBit>:

static void I2C_SLAVE_sendBit(char bit)
{
	//Workaround implementer so ack-bit can be send without the toSend buffer is lost.
	//If data buffer is already updated the toSend buffer is temporarily stored.
	if(I2C_SLAVE_dataReady == 1)
      a6:	90 91 20 01 	lds	r25, 0x0120	; 0x800120 <I2C_SLAVE_dataReady>
      aa:	91 30       	cpi	r25, 0x01	; 1
      ac:	41 f4       	brne	.+16     	; 0xbe <I2C_SLAVE_sendBit+0x18>
	{
		//Saves  toSend in temporary buffer.
		I2C_SLAVE_tempSave = I2C_SLAVE_toSend;
      ae:	90 91 22 01 	lds	r25, 0x0122	; 0x800122 <I2C_SLAVE_toSend>
      b2:	90 93 21 01 	sts	0x0121, r25	; 0x800121 <I2C_SLAVE_tempSave>
		//Sets data ready to 2 to indicate that the send buffer should be reverted back to the temporary buffer after sending.
		I2C_SLAVE_dataReady = 2;
      b6:	92 e0       	ldi	r25, 0x02	; 2
      b8:	90 93 20 01 	sts	0x0120, r25	; 0x800120 <I2C_SLAVE_dataReady>
      bc:	03 c0       	rjmp	.+6      	; 0xc4 <I2C_SLAVE_sendBit+0x1e>
	}
	else
	{
		//If the data buffer isn't set, then there is no need to store anything in the temporary buffer.
		I2C_SLAVE_dataReady = 1;
      be:	91 e0       	ldi	r25, 0x01	; 1
      c0:	90 93 20 01 	sts	0x0120, r25	; 0x800120 <I2C_SLAVE_dataReady>
	}
	//Only one bit should be send, therefore bit number 7 is set high and have sended
	//is set to 7, so the byte sending functionality can be utilized for sending only one bit.
	I2C_SLAVE_toSend = bit << 7;
      c4:	87 95       	ror	r24
      c6:	88 27       	eor	r24, r24
      c8:	87 95       	ror	r24
      ca:	80 93 22 01 	sts	0x0122, r24	; 0x800122 <I2C_SLAVE_toSend>
	I2C_SLAVE_haveSended = 7;
      ce:	87 e0       	ldi	r24, 0x07	; 7
      d0:	80 93 1f 01 	sts	0x011F, r24	; 0x80011f <I2C_SLAVE_haveSended>
      d4:	08 95       	ret

000000d6 <I2C_SLAVE_beginSend>:
}

static void I2C_SLAVE_beginSend()
{
	//sending bits should be updated on a falling edge. SCL int trigger is changed accordingly.
	I2C_SLAVE_SCL_FALLING();
      d6:	e9 e6       	ldi	r30, 0x69	; 105
      d8:	f0 e0       	ldi	r31, 0x00	; 0
      da:	80 81       	ld	r24, Z
      dc:	82 60       	ori	r24, 0x02	; 2
      de:	80 83       	st	Z, r24
      e0:	80 81       	ld	r24, Z
      e2:	8e 7f       	andi	r24, 0xFE	; 254
      e4:	80 83       	st	Z, r24
	//If the temporary buffer is used dataReady is set to 3, to indicate that sending has begun and
	//that the buffer should be updated.
	if(I2C_SLAVE_dataReady == 2)
      e6:	80 91 20 01 	lds	r24, 0x0120	; 0x800120 <I2C_SLAVE_dataReady>
      ea:	82 30       	cpi	r24, 0x02	; 2
      ec:	21 f4       	brne	.+8      	; 0xf6 <I2C_SLAVE_beginSend+0x20>
		I2C_SLAVE_dataReady = 3;
      ee:	83 e0       	ldi	r24, 0x03	; 3
      f0:	80 93 20 01 	sts	0x0120, r24	; 0x800120 <I2C_SLAVE_dataReady>
      f4:	08 95       	ret
	else
	//If the temporary buffer isn't used, then it is reverted to show that there is no new data in the toSend buffer. 
		I2C_SLAVE_dataReady = 0;
      f6:	10 92 20 01 	sts	0x0120, r1	; 0x800120 <I2C_SLAVE_dataReady>
      fa:	08 95       	ret

000000fc <setPWMLevel>:

static volatile bool curr_pan = PAN1;

static void setPWMLevel(uint16_t PWM_level){	//Sets the PWM level for the heating
	
	if (curr_pan)
      fc:	20 91 2a 01 	lds	r18, 0x012A	; 0x80012a <curr_pan>
     100:	22 23       	and	r18, r18
     102:	f1 f0       	breq	.+60     	; 0x140 <setPWMLevel+0x44>
		OCR1B = ceil(TIMER_1HZ_TOP - ((TIMER_1HZ_TOP/100) * (PWM_level > 100 ? 100 : PWM_level)));
     104:	85 36       	cpi	r24, 0x65	; 101
     106:	91 05       	cpc	r25, r1
     108:	70 f4       	brcc	.+28     	; 0x126 <setPWMLevel+0x2a>
     10a:	dc 01       	movw	r26, r24
     10c:	20 e9       	ldi	r18, 0x90	; 144
     10e:	3d ef       	ldi	r19, 0xFD	; 253
     110:	4f ef       	ldi	r20, 0xFF	; 255
     112:	5f ef       	ldi	r21, 0xFF	; 255
     114:	0e 94 35 08 	call	0x106a	; 0x106a <__muluhisi3>
     118:	6d 5d       	subi	r22, 0xDD	; 221
     11a:	7b 40       	sbci	r23, 0x0B	; 11
     11c:	8f 4f       	sbci	r24, 0xFF	; 255
     11e:	9f 4f       	sbci	r25, 0xFF	; 255
     120:	0e 94 fb 06 	call	0xdf6	; 0xdf6 <__floatsisf>
     124:	04 c0       	rjmp	.+8      	; 0x12e <setPWMLevel+0x32>
     126:	60 e0       	ldi	r22, 0x00	; 0
     128:	70 e0       	ldi	r23, 0x00	; 0
     12a:	86 ec       	ldi	r24, 0xC6	; 198
     12c:	92 e4       	ldi	r25, 0x42	; 66
     12e:	0e 94 ac 06 	call	0xd58	; 0xd58 <ceil>
     132:	0e 94 ca 06 	call	0xd94	; 0xd94 <__fixunssfsi>
     136:	70 93 8b 00 	sts	0x008B, r23	; 0x80008b <__DATA_REGION_ORIGIN__+0x2b>
     13a:	60 93 8a 00 	sts	0x008A, r22	; 0x80008a <__DATA_REGION_ORIGIN__+0x2a>
     13e:	08 95       	ret
	else
		OCR1A = ceil(TIMER_1HZ_TOP - ((TIMER_1HZ_TOP/100) * (PWM_level > 100 ? 100 : PWM_level)));
     140:	85 36       	cpi	r24, 0x65	; 101
     142:	91 05       	cpc	r25, r1
     144:	70 f4       	brcc	.+28     	; 0x162 <setPWMLevel+0x66>
     146:	dc 01       	movw	r26, r24
     148:	20 e9       	ldi	r18, 0x90	; 144
     14a:	3d ef       	ldi	r19, 0xFD	; 253
     14c:	4f ef       	ldi	r20, 0xFF	; 255
     14e:	5f ef       	ldi	r21, 0xFF	; 255
     150:	0e 94 35 08 	call	0x106a	; 0x106a <__muluhisi3>
     154:	6d 5d       	subi	r22, 0xDD	; 221
     156:	7b 40       	sbci	r23, 0x0B	; 11
     158:	8f 4f       	sbci	r24, 0xFF	; 255
     15a:	9f 4f       	sbci	r25, 0xFF	; 255
     15c:	0e 94 fb 06 	call	0xdf6	; 0xdf6 <__floatsisf>
     160:	04 c0       	rjmp	.+8      	; 0x16a <setPWMLevel+0x6e>
     162:	60 e0       	ldi	r22, 0x00	; 0
     164:	70 e0       	ldi	r23, 0x00	; 0
     166:	86 ec       	ldi	r24, 0xC6	; 198
     168:	92 e4       	ldi	r25, 0x42	; 66
     16a:	0e 94 ac 06 	call	0xd58	; 0xd58 <ceil>
     16e:	0e 94 ca 06 	call	0xd94	; 0xd94 <__fixunssfsi>
     172:	70 93 89 00 	sts	0x0089, r23	; 0x800089 <__DATA_REGION_ORIGIN__+0x29>
     176:	60 93 88 00 	sts	0x0088, r22	; 0x800088 <__DATA_REGION_ORIGIN__+0x28>
     17a:	08 95       	ret

0000017c <setMotorPWM>:

static volatile uint16_t curr_time = 0;	
static volatile bool motor_flipping = MOTOR1;

static void setMotorPWM(uint8_t PWM, bool motor) {
	if (motor == MOTOR1) {
     17c:	61 11       	cpse	r22, r1
     17e:	1f c0       	rjmp	.+62     	; 0x1be <setMotorPWM+0x42>
		OCR0A = (TIMER0_TOP - ceil(((TIMER0_TOP/100) * (PWM > 100? 100 : PWM))));
     180:	85 36       	cpi	r24, 0x65	; 101
     182:	58 f4       	brcc	.+22     	; 0x19a <setMotorPWM+0x1e>
     184:	68 2f       	mov	r22, r24
     186:	70 e0       	ldi	r23, 0x00	; 0
     188:	66 0f       	add	r22, r22
     18a:	77 1f       	adc	r23, r23
     18c:	07 2e       	mov	r0, r23
     18e:	00 0c       	add	r0, r0
     190:	88 0b       	sbc	r24, r24
     192:	99 0b       	sbc	r25, r25
     194:	0e 94 fb 06 	call	0xdf6	; 0xdf6 <__floatsisf>
     198:	04 c0       	rjmp	.+8      	; 0x1a2 <setMotorPWM+0x26>
     19a:	60 e0       	ldi	r22, 0x00	; 0
     19c:	70 e0       	ldi	r23, 0x00	; 0
     19e:	88 e4       	ldi	r24, 0x48	; 72
     1a0:	93 e4       	ldi	r25, 0x43	; 67
     1a2:	0e 94 ac 06 	call	0xd58	; 0xd58 <ceil>
     1a6:	9b 01       	movw	r18, r22
     1a8:	ac 01       	movw	r20, r24
     1aa:	60 e0       	ldi	r22, 0x00	; 0
     1ac:	70 e0       	ldi	r23, 0x00	; 0
     1ae:	8f e7       	ldi	r24, 0x7F	; 127
     1b0:	93 e4       	ldi	r25, 0x43	; 67
     1b2:	0e 94 3f 06 	call	0xc7e	; 0xc7e <__subsf3>
     1b6:	0e 94 ca 06 	call	0xd94	; 0xd94 <__fixunssfsi>
     1ba:	67 bd       	out	0x27, r22	; 39
     1bc:	08 95       	ret
	}
	else {
		OCR0B = (TIMER0_TOP - ceil(((TIMER0_TOP/100) * (PWM > 100? 100 : PWM))));
     1be:	85 36       	cpi	r24, 0x65	; 101
     1c0:	58 f4       	brcc	.+22     	; 0x1d8 <setMotorPWM+0x5c>
     1c2:	68 2f       	mov	r22, r24
     1c4:	70 e0       	ldi	r23, 0x00	; 0
     1c6:	66 0f       	add	r22, r22
     1c8:	77 1f       	adc	r23, r23
     1ca:	07 2e       	mov	r0, r23
     1cc:	00 0c       	add	r0, r0
     1ce:	88 0b       	sbc	r24, r24
     1d0:	99 0b       	sbc	r25, r25
     1d2:	0e 94 fb 06 	call	0xdf6	; 0xdf6 <__floatsisf>
     1d6:	04 c0       	rjmp	.+8      	; 0x1e0 <setMotorPWM+0x64>
     1d8:	60 e0       	ldi	r22, 0x00	; 0
     1da:	70 e0       	ldi	r23, 0x00	; 0
     1dc:	88 e4       	ldi	r24, 0x48	; 72
     1de:	93 e4       	ldi	r25, 0x43	; 67
     1e0:	0e 94 ac 06 	call	0xd58	; 0xd58 <ceil>
     1e4:	9b 01       	movw	r18, r22
     1e6:	ac 01       	movw	r20, r24
     1e8:	60 e0       	ldi	r22, 0x00	; 0
     1ea:	70 e0       	ldi	r23, 0x00	; 0
     1ec:	8f e7       	ldi	r24, 0x7F	; 127
     1ee:	93 e4       	ldi	r25, 0x43	; 67
     1f0:	0e 94 3f 06 	call	0xc7e	; 0xc7e <__subsf3>
     1f4:	0e 94 ca 06 	call	0xd94	; 0xd94 <__fixunssfsi>
     1f8:	68 bd       	out	0x28, r22	; 40
     1fa:	08 95       	ret

000001fc <init_digital_comm>:
#define DIGITAL_PROTOCOL_vect	PCINT0_vect

void init_digital_comm() {
	//Pin setup
	//Set Heat on/off as input and PANCAKE_DONE as output
	DDRB &= ~(HEAT_ON_OFF_PIN);
     1fc:	20 98       	cbi	0x04, 0	; 4
	DDRB |= PANCAKE_DONE_PIN;	
     1fe:	24 9a       	sbi	0x04, 4	; 4
	
	PORTB &= ~(PANCAKE_DONE_PIN | HEAT_ON_OFF_PIN);		//Set PANCAKE_DONE line to low and no pullup for heat on/off
     200:	85 b1       	in	r24, 0x05	; 5
     202:	8e 7e       	andi	r24, 0xEE	; 238
     204:	85 b9       	out	0x05, r24	; 5
	
	//Interrupt setup
	PCICR |= (1<<PCIE0);						//Enable pin change interrupt 0
     206:	e8 e6       	ldi	r30, 0x68	; 104
     208:	f0 e0       	ldi	r31, 0x00	; 0
     20a:	80 81       	ld	r24, Z
     20c:	81 60       	ori	r24, 0x01	; 1
     20e:	80 83       	st	Z, r24
	PCMSK0 |=  (1 << PCINT0);			//Set pin B0 as an interrupt pin
     210:	eb e6       	ldi	r30, 0x6B	; 107
     212:	f0 e0       	ldi	r31, 0x00	; 0
     214:	80 81       	ld	r24, Z
     216:	81 60       	ori	r24, 0x01	; 1
     218:	80 83       	st	Z, r24
     21a:	08 95       	ret

0000021c <pancakeDone>:
	
}

void pancakeDone(){
	
	if (pancake_done) {
     21c:	80 91 06 01 	lds	r24, 0x0106	; 0x800106 <pancake_done>
     220:	88 23       	and	r24, r24
     222:	21 f0       	breq	.+8      	; 0x22c <pancakeDone+0x10>
		PORTB |= PANCAKE_DONE_PIN;
     224:	2c 9a       	sbi	0x05, 4	; 5
		pancake_done = false;
     226:	10 92 06 01 	sts	0x0106, r1	; 0x800106 <pancake_done>
     22a:	08 95       	ret
	}
	else {
		PORTB &= ~(PANCAKE_DONE_PIN);
     22c:	2c 98       	cbi	0x05, 4	; 5
     22e:	08 95       	ret

00000230 <__vector_3>:
		heat_on_ctrl = !heat_on_ctrl;		//Toggle the heat control variable
	}
}

//PAN_ON/OFF interrupt
ISR(DIGITAL_PROTOCOL_vect){
     230:	1f 92       	push	r1
     232:	0f 92       	push	r0
     234:	0f b6       	in	r0, 0x3f	; 63
     236:	0f 92       	push	r0
     238:	11 24       	eor	r1, r1
     23a:	8f 93       	push	r24
     23c:	9f 93       	push	r25
	}

}

static void turnOnPans() {
	if(PINB & HEAT_ON_OFF_PIN){
     23e:	18 9b       	sbis	0x03, 0	; 3
     240:	06 c0       	rjmp	.+12     	; 0x24e <__vector_3+0x1e>
		heat_on_ctrl = !heat_on_ctrl;		//Toggle the heat control variable
     242:	90 91 0a 01 	lds	r25, 0x010A	; 0x80010a <heat_on_ctrl>
     246:	81 e0       	ldi	r24, 0x01	; 1
     248:	89 27       	eor	r24, r25
     24a:	80 93 0a 01 	sts	0x010A, r24	; 0x80010a <heat_on_ctrl>
}

//PAN_ON/OFF interrupt
ISR(DIGITAL_PROTOCOL_vect){
	turnOnPans();
}
     24e:	9f 91       	pop	r25
     250:	8f 91       	pop	r24
     252:	0f 90       	pop	r0
     254:	0f be       	out	0x3f, r0	; 63
     256:	0f 90       	pop	r0
     258:	1f 90       	pop	r1
     25a:	18 95       	reti

0000025c <init_regulation>:


void init_regulation(){
	
	//Setup ADC
	PRR &= ~(1 << PRADC);	//Power management enabling of adc
     25c:	e4 e6       	ldi	r30, 0x64	; 100
     25e:	f0 e0       	ldi	r31, 0x00	; 0
     260:	80 81       	ld	r24, Z
     262:	8e 7f       	andi	r24, 0xFE	; 254
     264:	80 83       	st	Z, r24
	DDRC &= 0xFC;			//Port C 0 and 1 is input
     266:	87 b1       	in	r24, 0x07	; 7
     268:	8c 7f       	andi	r24, 0xFC	; 252
     26a:	87 b9       	out	0x07, r24	; 7
	ADMUX =	(1 << REFS0);	//REF = VCC, ADC0 selected
     26c:	80 e4       	ldi	r24, 0x40	; 64
     26e:	80 93 7c 00 	sts	0x007C, r24	; 0x80007c <__DATA_REGION_ORIGIN__+0x1c>
	
	ADCSRA |= (1 << ADEN) | (1 << ADIE) | (1 << ADPS2) | (1 << ADPS1) | (1 << ADPS0);	//Enable ADC, Enable ADC convertion interrupt , prescaler = 128
     272:	ea e7       	ldi	r30, 0x7A	; 122
     274:	f0 e0       	ldi	r31, 0x00	; 0
     276:	80 81       	ld	r24, Z
     278:	8f 68       	ori	r24, 0x8F	; 143
     27a:	80 83       	st	Z, r24
	
	//Setup for power PWM using OCR1B and OCR1A
	DDRB |= (1 << PORTB2) | (1 << PORTB1);	//Output for power PWM at PB2 and PB1
     27c:	84 b1       	in	r24, 0x04	; 4
     27e:	86 60       	ori	r24, 0x06	; 6
     280:	84 b9       	out	0x04, r24	; 4
	
	OCR1A = TIMER_1HZ_TOP;			//Set PWM level to 0 for pan1
     282:	83 e2       	ldi	r24, 0x23	; 35
     284:	94 ef       	ldi	r25, 0xF4	; 244
     286:	90 93 89 00 	sts	0x0089, r25	; 0x800089 <__DATA_REGION_ORIGIN__+0x29>
     28a:	80 93 88 00 	sts	0x0088, r24	; 0x800088 <__DATA_REGION_ORIGIN__+0x28>
	OCR1B = TIMER_1HZ_TOP;			//Set PWM level to 0 for pan2
     28e:	90 93 8b 00 	sts	0x008B, r25	; 0x80008b <__DATA_REGION_ORIGIN__+0x2b>
     292:	80 93 8a 00 	sts	0x008A, r24	; 0x80008a <__DATA_REGION_ORIGIN__+0x2a>
	
	//OCR1A and B is set on compare match and cleared at bottom (0)
	TCCR1A |= (1 << COM1A1) | (1 << COM1A0) | (1 << COM1B1) | (1 << COM1B0);;;;;;
     296:	a0 e8       	ldi	r26, 0x80	; 128
     298:	b0 e0       	ldi	r27, 0x00	; 0
     29a:	8c 91       	ld	r24, X
     29c:	80 6f       	ori	r24, 0xF0	; 240
     29e:	8c 93       	st	X, r24
	
	//Start the regulation loop
	ADCSRA |= (1 << ADSC);
     2a0:	80 81       	ld	r24, Z
     2a2:	80 64       	ori	r24, 0x40	; 64
     2a4:	80 83       	st	Z, r24
     2a6:	08 95       	ret

000002a8 <__vector_21>:
#define KI		((double) 0.001)
#define DT		((double)((128*13)/F_CPU)) //Time for single convertion ~ 1/16000000/(128*13)	(one convertion = 13 clock cyckles)

//Regulation loop - not time critical
ISR(ADC_vect)
{
     2a8:	1f 92       	push	r1
     2aa:	0f 92       	push	r0
     2ac:	0f b6       	in	r0, 0x3f	; 63
     2ae:	0f 92       	push	r0
     2b0:	11 24       	eor	r1, r1
     2b2:	8f 92       	push	r8
     2b4:	9f 92       	push	r9
     2b6:	af 92       	push	r10
     2b8:	bf 92       	push	r11
     2ba:	cf 92       	push	r12
     2bc:	df 92       	push	r13
     2be:	ef 92       	push	r14
     2c0:	ff 92       	push	r15
     2c2:	2f 93       	push	r18
     2c4:	3f 93       	push	r19
     2c6:	4f 93       	push	r20
     2c8:	5f 93       	push	r21
     2ca:	6f 93       	push	r22
     2cc:	7f 93       	push	r23
     2ce:	8f 93       	push	r24
     2d0:	9f 93       	push	r25
     2d2:	af 93       	push	r26
     2d4:	bf 93       	push	r27
     2d6:	ef 93       	push	r30
     2d8:	ff 93       	push	r31
}

static uint16_t readHeatLevel(){
	
	//Read ADCL first - it is important
	uint8_t temp = ADCL;
     2da:	20 91 78 00 	lds	r18, 0x0078	; 0x800078 <__DATA_REGION_ORIGIN__+0x18>
	return ((ADCH & 0x03) << 8) + temp;
     2de:	80 91 79 00 	lds	r24, 0x0079	; 0x800079 <__DATA_REGION_ORIGIN__+0x19>
     2e2:	83 70       	andi	r24, 0x03	; 3
     2e4:	90 e0       	ldi	r25, 0x00	; 0
     2e6:	98 2f       	mov	r25, r24
     2e8:	88 27       	eor	r24, r24
     2ea:	82 0f       	add	r24, r18
     2ec:	91 1d       	adc	r25, r1
	
	uint16_t temp = readHeatLevel();

	
	//Check heat level
	if (curr_pan == PAN1) {
     2ee:	20 91 2a 01 	lds	r18, 0x012A	; 0x80012a <curr_pan>
     2f2:	21 11       	cpse	r18, r1
     2f4:	0d c0       	rjmp	.+26     	; 0x310 <__vector_21+0x68>
		if (temp >= TRIGGER_LOW && temp <= TRIGGER_HIGH){
     2f6:	9c 01       	movw	r18, r24
     2f8:	22 5a       	subi	r18, 0xA2	; 162
     2fa:	33 40       	sbci	r19, 0x03	; 3
     2fc:	2f 31       	cpi	r18, 0x1F	; 31
     2fe:	31 05       	cpc	r19, r1
     300:	20 f4       	brcc	.+8      	; 0x30a <__vector_21+0x62>
			heat_ok_pan1 = true;
     302:	21 e0       	ldi	r18, 0x01	; 1
     304:	20 93 09 01 	sts	0x0109, r18	; 0x800109 <heat_ok_pan1>
     308:	0f c0       	rjmp	.+30     	; 0x328 <__vector_21+0x80>
		} else {
			heat_ok_pan1 = false;
     30a:	10 92 09 01 	sts	0x0109, r1	; 0x800109 <heat_ok_pan1>
     30e:	0c c0       	rjmp	.+24     	; 0x328 <__vector_21+0x80>
		}
	} else {
		if (temp >= TRIGGER_LOW && temp <= TRIGGER_HIGH){
     310:	9c 01       	movw	r18, r24
     312:	22 5a       	subi	r18, 0xA2	; 162
     314:	33 40       	sbci	r19, 0x03	; 3
     316:	2f 31       	cpi	r18, 0x1F	; 31
     318:	31 05       	cpc	r19, r1
     31a:	20 f4       	brcc	.+8      	; 0x324 <__vector_21+0x7c>
			heat_ok_pan2 = true;
     31c:	21 e0       	ldi	r18, 0x01	; 1
     31e:	20 93 08 01 	sts	0x0108, r18	; 0x800108 <heat_ok_pan2>
     322:	02 c0       	rjmp	.+4      	; 0x328 <__vector_21+0x80>
		} else {
			heat_ok_pan2 = false;
     324:	10 92 08 01 	sts	0x0108, r1	; 0x800108 <heat_ok_pan2>
		}
	}
	heat_ok = heat_ok_pan1 && heat_ok_pan2;
     328:	20 91 09 01 	lds	r18, 0x0109	; 0x800109 <heat_ok_pan1>
     32c:	22 23       	and	r18, r18
     32e:	19 f0       	breq	.+6      	; 0x336 <__vector_21+0x8e>
     330:	20 91 08 01 	lds	r18, 0x0108	; 0x800108 <heat_ok_pan2>
     334:	02 c0       	rjmp	.+4      	; 0x33a <__vector_21+0x92>
     336:	20 e0       	ldi	r18, 0x00	; 0
     338:	30 e0       	ldi	r19, 0x00	; 0
     33a:	21 70       	andi	r18, 0x01	; 1
     33c:	20 93 07 01 	sts	0x0107, r18	; 0x800107 <heat_ok>
	
	//If no heating control - turn off the pans
	if (!heat_on_ctrl)		
     340:	20 91 0a 01 	lds	r18, 0x010A	; 0x80010a <heat_on_ctrl>
     344:	21 11       	cpse	r18, r1
     346:	0d c0       	rjmp	.+26     	; 0x362 <__vector_21+0xba>
	{
		integral = 0;
     348:	10 92 26 01 	sts	0x0126, r1	; 0x800126 <integral>
     34c:	10 92 27 01 	sts	0x0127, r1	; 0x800127 <integral+0x1>
     350:	10 92 28 01 	sts	0x0128, r1	; 0x800128 <integral+0x2>
     354:	10 92 29 01 	sts	0x0129, r1	; 0x800129 <integral+0x3>
		setPWMLevel(0);
     358:	80 e0       	ldi	r24, 0x00	; 0
     35a:	90 e0       	ldi	r25, 0x00	; 0
     35c:	0e 94 7e 00 	call	0xfc	; 0xfc <setPWMLevel>
     360:	4e c0       	rjmp	.+156    	; 0x3fe <__vector_21+0x156>
	} else {
	
		//Calculate the values for the PI controller
		int16_t error = OPTIMUM_TEMP - temp;
		integral += error*DT;
     362:	61 eb       	ldi	r22, 0xB1	; 177
     364:	73 e0       	ldi	r23, 0x03	; 3
     366:	68 1b       	sub	r22, r24
     368:	79 0b       	sbc	r23, r25
     36a:	07 2e       	mov	r0, r23
     36c:	00 0c       	add	r0, r0
     36e:	88 0b       	sbc	r24, r24
     370:	99 0b       	sbc	r25, r25
     372:	0e 94 fb 06 	call	0xdf6	; 0xdf6 <__floatsisf>
     376:	6b 01       	movw	r12, r22
     378:	7c 01       	movw	r14, r24
     37a:	80 90 26 01 	lds	r8, 0x0126	; 0x800126 <integral>
     37e:	90 90 27 01 	lds	r9, 0x0127	; 0x800127 <integral+0x1>
     382:	a0 90 28 01 	lds	r10, 0x0128	; 0x800128 <integral+0x2>
     386:	b0 90 29 01 	lds	r11, 0x0129	; 0x800129 <integral+0x3>
     38a:	20 e0       	ldi	r18, 0x00	; 0
     38c:	30 e0       	ldi	r19, 0x00	; 0
     38e:	a9 01       	movw	r20, r18
     390:	0e 94 c8 07 	call	0xf90	; 0xf90 <__mulsf3>
     394:	a5 01       	movw	r20, r10
     396:	94 01       	movw	r18, r8
     398:	0e 94 40 06 	call	0xc80	; 0xc80 <__addsf3>
     39c:	60 93 26 01 	sts	0x0126, r22	; 0x800126 <integral>
     3a0:	70 93 27 01 	sts	0x0127, r23	; 0x800127 <integral+0x1>
     3a4:	80 93 28 01 	sts	0x0128, r24	; 0x800128 <integral+0x2>
     3a8:	90 93 29 01 	sts	0x0129, r25	; 0x800129 <integral+0x3>
	
		//Calculate the output
		int16_t output = error*KP + integral*KI;
     3ac:	80 90 26 01 	lds	r8, 0x0126	; 0x800126 <integral>
     3b0:	90 90 27 01 	lds	r9, 0x0127	; 0x800127 <integral+0x1>
     3b4:	a0 90 28 01 	lds	r10, 0x0128	; 0x800128 <integral+0x2>
     3b8:	b0 90 29 01 	lds	r11, 0x0129	; 0x800129 <integral+0x3>
		
		//Set PWM
		setPWMLevel((output < 0? 0 : output));
     3bc:	25 ec       	ldi	r18, 0xC5	; 197
     3be:	30 e2       	ldi	r19, 0x20	; 32
     3c0:	40 e8       	ldi	r20, 0x80	; 128
     3c2:	5f e3       	ldi	r21, 0x3F	; 63
     3c4:	c7 01       	movw	r24, r14
     3c6:	b6 01       	movw	r22, r12
     3c8:	0e 94 c8 07 	call	0xf90	; 0xf90 <__mulsf3>
     3cc:	6b 01       	movw	r12, r22
     3ce:	7c 01       	movw	r14, r24
     3d0:	2f e6       	ldi	r18, 0x6F	; 111
     3d2:	32 e1       	ldi	r19, 0x12	; 18
     3d4:	43 e8       	ldi	r20, 0x83	; 131
     3d6:	5a e3       	ldi	r21, 0x3A	; 58
     3d8:	c5 01       	movw	r24, r10
     3da:	b4 01       	movw	r22, r8
     3dc:	0e 94 c8 07 	call	0xf90	; 0xf90 <__mulsf3>
     3e0:	9b 01       	movw	r18, r22
     3e2:	ac 01       	movw	r20, r24
     3e4:	c7 01       	movw	r24, r14
     3e6:	b6 01       	movw	r22, r12
     3e8:	0e 94 40 06 	call	0xc80	; 0xc80 <__addsf3>
     3ec:	0e 94 c3 06 	call	0xd86	; 0xd86 <__fixsfsi>
     3f0:	cb 01       	movw	r24, r22
     3f2:	99 23       	and	r25, r25
     3f4:	14 f4       	brge	.+4      	; 0x3fa <__vector_21+0x152>
     3f6:	80 e0       	ldi	r24, 0x00	; 0
     3f8:	90 e0       	ldi	r25, 0x00	; 0
     3fa:	0e 94 7e 00 	call	0xfc	; 0xfc <setPWMLevel>
	}
	//Change pan
	curr_pan = !curr_pan;
     3fe:	90 91 2a 01 	lds	r25, 0x012A	; 0x80012a <curr_pan>
     402:	81 e0       	ldi	r24, 0x01	; 1
     404:	98 27       	eor	r25, r24
     406:	90 93 2a 01 	sts	0x012A, r25	; 0x80012a <curr_pan>
		
	ADMUX ^= 0x01;		//Change between ADC0 and ADC1
     40a:	ec e7       	ldi	r30, 0x7C	; 124
     40c:	f0 e0       	ldi	r31, 0x00	; 0
     40e:	90 81       	ld	r25, Z
     410:	89 27       	eor	r24, r25
     412:	80 83       	st	Z, r24
	
	//Restart conversion
	ADCSRA |= (1 << ADSC);
     414:	ea e7       	ldi	r30, 0x7A	; 122
     416:	f0 e0       	ldi	r31, 0x00	; 0
     418:	80 81       	ld	r24, Z
     41a:	80 64       	ori	r24, 0x40	; 64
     41c:	80 83       	st	Z, r24
}
     41e:	ff 91       	pop	r31
     420:	ef 91       	pop	r30
     422:	bf 91       	pop	r27
     424:	af 91       	pop	r26
     426:	9f 91       	pop	r25
     428:	8f 91       	pop	r24
     42a:	7f 91       	pop	r23
     42c:	6f 91       	pop	r22
     42e:	5f 91       	pop	r21
     430:	4f 91       	pop	r20
     432:	3f 91       	pop	r19
     434:	2f 91       	pop	r18
     436:	ff 90       	pop	r15
     438:	ef 90       	pop	r14
     43a:	df 90       	pop	r13
     43c:	cf 90       	pop	r12
     43e:	bf 90       	pop	r11
     440:	af 90       	pop	r10
     442:	9f 90       	pop	r9
     444:	8f 90       	pop	r8
     446:	0f 90       	pop	r0
     448:	0f be       	out	0x3f, r0	; 63
     44a:	0f 90       	pop	r0
     44c:	1f 90       	pop	r1
     44e:	18 95       	reti

00000450 <I2C_SLAVE_checkData>:
// ## Definitions bellow ##

volatile bool I2C_SLAVE_checkData()
{
	//Checks if all data has been read.
	if(I2C_SLAVE_first != I2C_SLAVE_last || I2C_SLAVE_full)
     450:	90 91 1a 01 	lds	r25, 0x011A	; 0x80011a <I2C_SLAVE_first>
     454:	80 91 19 01 	lds	r24, 0x0119	; 0x800119 <I2C_SLAVE_last>
     458:	98 13       	cpse	r25, r24
     45a:	03 c0       	rjmp	.+6      	; 0x462 <I2C_SLAVE_checkData+0x12>
     45c:	80 91 18 01 	lds	r24, 0x0118	; 0x800118 <I2C_SLAVE_full>
     460:	08 95       	ret
	{
		return true;
     462:	81 e0       	ldi	r24, 0x01	; 1
	}
	return false;
}
     464:	08 95       	ret

00000466 <I2C_SLAVE_sendData>:

void I2C_SLAVE_sendData(char data)
{
	while(I2C_SLAVE_startRecived && !I2C_SLAVE_canSend);
     466:	90 91 1d 01 	lds	r25, 0x011D	; 0x80011d <I2C_SLAVE_startRecived>
     46a:	99 23       	and	r25, r25
     46c:	21 f0       	breq	.+8      	; 0x476 <I2C_SLAVE_sendData+0x10>
     46e:	90 91 1c 01 	lds	r25, 0x011C	; 0x80011c <I2C_SLAVE_canSend>
     472:	99 23       	and	r25, r25
     474:	c1 f3       	breq	.-16     	; 0x466 <I2C_SLAVE_sendData>
	I2C_SLAVE_canSend = false;
     476:	10 92 1c 01 	sts	0x011C, r1	; 0x80011c <I2C_SLAVE_canSend>
	//Sets send data to send.
	I2C_SLAVE_toSend = data;
     47a:	80 93 22 01 	sts	0x0122, r24	; 0x800122 <I2C_SLAVE_toSend>
	//Sets number of bits sended to 0.
	I2C_SLAVE_haveSended = 0;
     47e:	10 92 1f 01 	sts	0x011F, r1	; 0x80011f <I2C_SLAVE_haveSended>
	//Indicates that data is needed to be send.
	I2C_SLAVE_dataReady = 1;
     482:	81 e0       	ldi	r24, 0x01	; 1
     484:	80 93 20 01 	sts	0x0120, r24	; 0x800120 <I2C_SLAVE_dataReady>
	
	
	
	//If begin hold is sat, then sending will begin imidiatly.
	if(I2C_SLAVE_beginHold)
     488:	80 91 1b 01 	lds	r24, 0x011B	; 0x80011b <I2C_SLAVE_beginHold>
     48c:	88 23       	and	r24, r24
     48e:	09 f4       	brne	.+2      	; 0x492 <I2C_SLAVE_sendData+0x2c>
     490:	4a c0       	rjmp	.+148    	; 0x526 <I2C_SLAVE_sendData+0xc0>
	{
		//Resets begin hold
		I2C_SLAVE_beginHold = false;
     492:	10 92 1b 01 	sts	0x011B, r1	; 0x80011b <I2C_SLAVE_beginHold>
		//Disables SDA interrupt to avoid stop bit triggering if toSind most significant is 1.
		I2C_SLAVE_SDA_INT_ENAB(0);
     496:	e8 e6       	ldi	r30, 0x68	; 104
     498:	f0 e0       	ldi	r31, 0x00	; 0
     49a:	80 81       	ld	r24, Z
     49c:	8b 7f       	andi	r24, 0xFB	; 251
     49e:	80 83       	st	Z, r24
		//Sets the line to most significant bit.
		I2C_SLAVE_DDR = I2C_SLAVE_SET_BIT(I2C_SLAVE_PORT, I2C_SLAVE_SDA, ~I2C_SLAVE_toSend, 7);
     4a0:	2b b1       	in	r18, 0x0b	; 11
     4a2:	80 91 22 01 	lds	r24, 0x0122	; 0x800122 <I2C_SLAVE_toSend>
     4a6:	90 e0       	ldi	r25, 0x00	; 0
     4a8:	80 95       	com	r24
     4aa:	90 95       	com	r25
     4ac:	88 0f       	add	r24, r24
     4ae:	89 2f       	mov	r24, r25
     4b0:	88 1f       	adc	r24, r24
     4b2:	99 0b       	sbc	r25, r25
     4b4:	82 95       	swap	r24
     4b6:	92 95       	swap	r25
     4b8:	90 7f       	andi	r25, 0xF0	; 240
     4ba:	98 27       	eor	r25, r24
     4bc:	80 7f       	andi	r24, 0xF0	; 240
     4be:	98 27       	eor	r25, r24
     4c0:	80 71       	andi	r24, 0x10	; 16
     4c2:	92 2f       	mov	r25, r18
     4c4:	9f 7e       	andi	r25, 0xEF	; 239
     4c6:	89 0f       	add	r24, r25
     4c8:	8a b9       	out	0x0a, r24	; 10
		I2C_SLAVE_PORT = I2C_SLAVE_SET_BIT(I2C_SLAVE_PORT, I2C_SLAVE_SDA, I2C_SLAVE_toSend, 7);
     4ca:	2b b1       	in	r18, 0x0b	; 11
     4cc:	80 91 22 01 	lds	r24, 0x0122	; 0x800122 <I2C_SLAVE_toSend>
     4d0:	88 1f       	adc	r24, r24
     4d2:	88 27       	eor	r24, r24
     4d4:	88 1f       	adc	r24, r24
     4d6:	90 e0       	ldi	r25, 0x00	; 0
     4d8:	82 95       	swap	r24
     4da:	92 95       	swap	r25
     4dc:	90 7f       	andi	r25, 0xF0	; 240
     4de:	98 27       	eor	r25, r24
     4e0:	80 7f       	andi	r24, 0xF0	; 240
     4e2:	98 27       	eor	r25, r24
     4e4:	80 71       	andi	r24, 0x10	; 16
     4e6:	92 2f       	mov	r25, r18
     4e8:	9f 7e       	andi	r25, 0xEF	; 239
     4ea:	89 0f       	add	r24, r25
     4ec:	8b b9       	out	0x0b, r24	; 11
		//Sets that first bit is sended.
		I2C_SLAVE_haveSended++;
     4ee:	80 91 1f 01 	lds	r24, 0x011F	; 0x80011f <I2C_SLAVE_haveSended>
     4f2:	8f 5f       	subi	r24, 0xFF	; 255
     4f4:	80 93 1f 01 	sts	0x011F, r24	; 0x80011f <I2C_SLAVE_haveSended>
		//Waits until SDA reads the correct bit before enabling interrupt agian.
		while(((I2C_SLAVE_toSend>>7)<<I2C_SLAVE_SDA) != (I2C_SLAVE_PIN & 1 << I2C_SLAVE_SDA)){}
     4f8:	80 91 22 01 	lds	r24, 0x0122	; 0x800122 <I2C_SLAVE_toSend>
     4fc:	29 b1       	in	r18, 0x09	; 9
     4fe:	88 1f       	adc	r24, r24
     500:	88 27       	eor	r24, r24
     502:	88 1f       	adc	r24, r24
     504:	90 e0       	ldi	r25, 0x00	; 0
     506:	82 95       	swap	r24
     508:	92 95       	swap	r25
     50a:	90 7f       	andi	r25, 0xF0	; 240
     50c:	98 27       	eor	r25, r24
     50e:	80 7f       	andi	r24, 0xF0	; 240
     510:	98 27       	eor	r25, r24
     512:	20 71       	andi	r18, 0x10	; 16
     514:	30 e0       	ldi	r19, 0x00	; 0
     516:	82 17       	cp	r24, r18
     518:	93 07       	cpc	r25, r19
     51a:	71 f7       	brne	.-36     	; 0x4f8 <I2C_SLAVE_sendData+0x92>
		//enables interrupt.
		I2C_SLAVE_SDA_INT_ENAB(1);
     51c:	e8 e6       	ldi	r30, 0x68	; 104
     51e:	f0 e0       	ldi	r31, 0x00	; 0
     520:	80 81       	ld	r24, Z
     522:	84 60       	ori	r24, 0x04	; 4
     524:	80 83       	st	Z, r24
	}
	I2C_SLAVE_DDR &= ~(1 << I2C_SLAVE_SCL);
     526:	52 98       	cbi	0x0a, 2	; 10
	I2C_SLAVE_PORT |= 1 << I2C_SLAVE_SCL;
     528:	5a 9a       	sbi	0x0b, 2	; 11
     52a:	08 95       	ret

0000052c <I2C_SLAVE_getData>:
}

I2C_commands_t I2C_SLAVE_getData()
{
	//Waits for data to have arrived.
	while(!I2C_SLAVE_checkData());
     52c:	0e 94 28 02 	call	0x450	; 0x450 <I2C_SLAVE_checkData>
     530:	88 23       	and	r24, r24
     532:	e1 f3       	breq	.-8      	; 0x52c <I2C_SLAVE_getData>
}

static char I2C_SLAVE_readFirst()
{
	//If buffer is not empty then it will read the buffer.
	if(I2C_SLAVE_checkData())
     534:	0e 94 28 02 	call	0x450	; 0x450 <I2C_SLAVE_checkData>
     538:	88 23       	and	r24, r24
     53a:	b9 f0       	breq	.+46     	; 0x56a <I2C_SLAVE_getData+0x3e>
	{
		//After the first is read, then the buffer isn't full anymore.
		if(I2C_SLAVE_full)
     53c:	80 91 18 01 	lds	r24, 0x0118	; 0x800118 <I2C_SLAVE_full>
     540:	81 11       	cpse	r24, r1
		{
			I2C_SLAVE_full = false;
     542:	10 92 18 01 	sts	0x0118, r1	; 0x800118 <I2C_SLAVE_full>
}

static unsigned char I2C_SLAVE_inc(volatile unsigned char * num)
{
	//Save return value.
	unsigned char temp = *num;
     546:	e0 91 1a 01 	lds	r30, 0x011A	; 0x80011a <I2C_SLAVE_first>

	//Incrementing number 
	(*num)++;
     54a:	80 91 1a 01 	lds	r24, 0x011A	; 0x80011a <I2C_SLAVE_first>
     54e:	8f 5f       	subi	r24, 0xFF	; 255
     550:	80 93 1a 01 	sts	0x011A, r24	; 0x80011a <I2C_SLAVE_first>
	
	//If number is higher than receive buffer length then its reset to 0.
	if(*num >= I2C_SLAVE_BUFFER_LENGTH)
     554:	80 91 1a 01 	lds	r24, 0x011A	; 0x80011a <I2C_SLAVE_first>
     558:	8a 30       	cpi	r24, 0x0A	; 10
     55a:	10 f0       	brcs	.+4      	; 0x560 <I2C_SLAVE_getData+0x34>
	{
		*num = 0;
     55c:	10 92 1a 01 	sts	0x011A, r1	; 0x80011a <I2C_SLAVE_first>
		if(I2C_SLAVE_full)
		{
			I2C_SLAVE_full = false;
		}
		//Returns the buffer en increments first by 1.
		return I2C_SLAVE_Buffer[I2C_SLAVE_inc(&I2C_SLAVE_first)];
     560:	f0 e0       	ldi	r31, 0x00	; 0
     562:	e2 5f       	subi	r30, 0xF2	; 242
     564:	fe 4f       	sbci	r31, 0xFE	; 254
     566:	80 81       	ld	r24, Z
     568:	08 95       	ret
	}
	return 0;
     56a:	80 e0       	ldi	r24, 0x00	; 0
{
	//Waits for data to have arrived.
	while(!I2C_SLAVE_checkData());
	//Returns first data.
	return (I2C_commands_t)I2C_SLAVE_readFirst();
}
     56c:	08 95       	ret

0000056e <I2C_SLAVE_init>:

void I2C_SLAVE_init()
{
	//Sets SCL interrupt to rising edge trigger.
	I2C_SLAVE_SCL_RISING();
     56e:	e9 e6       	ldi	r30, 0x69	; 105
     570:	f0 e0       	ldi	r31, 0x00	; 0
     572:	80 81       	ld	r24, Z
     574:	82 60       	ori	r24, 0x02	; 2
     576:	80 83       	st	Z, r24
     578:	80 81       	ld	r24, Z
     57a:	81 60       	ori	r24, 0x01	; 1
     57c:	80 83       	st	Z, r24

	//Sets SDA interrupt up.
	I2C_SLAVE_SDA_INT_INIT();
     57e:	e8 e6       	ldi	r30, 0x68	; 104
     580:	f0 e0       	ldi	r31, 0x00	; 0
     582:	80 81       	ld	r24, Z
     584:	80 61       	ori	r24, 0x10	; 16
     586:	80 93 6d 00 	sts	0x006D, r24	; 0x80006d <__DATA_REGION_ORIGIN__+0xd>
	
	//Enables both interrupts.
	I2C_SLAVE_SDA_INT_ENAB(1);
     58a:	80 81       	ld	r24, Z
     58c:	84 60       	ori	r24, 0x04	; 4
     58e:	80 83       	st	Z, r24
	I2C_SLAVE_SCL_INT_ENAB(1);
     590:	e8 9a       	sbi	0x1d, 0	; 29
	
	//Sets up ports to inputs with pull up.
	I2C_SLAVE_DDR &= ~(1 << I2C_SLAVE_SDA | 1 << I2C_SLAVE_SCL);
     592:	8a b1       	in	r24, 0x0a	; 10
     594:	8b 7e       	andi	r24, 0xEB	; 235
     596:	8a b9       	out	0x0a, r24	; 10
	I2C_SLAVE_PORT |= (1 << I2C_SLAVE_SDA | 1 << I2C_SLAVE_SCL);
     598:	8b b1       	in	r24, 0x0b	; 11
     59a:	84 61       	ori	r24, 0x14	; 20
     59c:	8b b9       	out	0x0b, r24	; 11
     59e:	08 95       	ret

000005a0 <__vector_1>:
	return 0;
}

//SCL interrupt for handling data transfer.
ISR(I2C_SLAVE_SCL_vect)
{
     5a0:	1f 92       	push	r1
     5a2:	0f 92       	push	r0
     5a4:	0f b6       	in	r0, 0x3f	; 63
     5a6:	0f 92       	push	r0
     5a8:	11 24       	eor	r1, r1
     5aa:	2f 93       	push	r18
     5ac:	3f 93       	push	r19
     5ae:	4f 93       	push	r20
     5b0:	5f 93       	push	r21
     5b2:	6f 93       	push	r22
     5b4:	7f 93       	push	r23
     5b6:	8f 93       	push	r24
     5b8:	9f 93       	push	r25
     5ba:	af 93       	push	r26
     5bc:	bf 93       	push	r27
     5be:	ef 93       	push	r30
     5c0:	ff 93       	push	r31
	//If start-bit received:
	if(I2C_SLAVE_startRecived)
     5c2:	80 91 1d 01 	lds	r24, 0x011D	; 0x80011d <I2C_SLAVE_startRecived>
     5c6:	88 23       	and	r24, r24
     5c8:	09 f4       	brne	.+2      	; 0x5cc <__vector_1+0x2c>
     5ca:	55 c1       	rjmp	.+682    	; 0x876 <__vector_1+0x2d6>
	{
		//If SCL is triggering on rising edge i.e. it's currently reading from SDA.
		if(I2C_SLAVE_SCL_IS_RISING())
     5cc:	80 91 69 00 	lds	r24, 0x0069	; 0x800069 <__DATA_REGION_ORIGIN__+0x9>
     5d0:	83 70       	andi	r24, 0x03	; 3
     5d2:	83 30       	cpi	r24, 0x03	; 3
     5d4:	09 f0       	breq	.+2      	; 0x5d8 <__vector_1+0x38>
     5d6:	af c0       	rjmp	.+350    	; 0x736 <__vector_1+0x196>
		{
			//If it just have been writing to SDA reset pull up to high.
			if(I2C_SLAVE_haveSended > 7)
     5d8:	80 91 1f 01 	lds	r24, 0x011F	; 0x80011f <I2C_SLAVE_haveSended>
     5dc:	88 30       	cpi	r24, 0x08	; 8
     5de:	40 f0       	brcs	.+16     	; 0x5f0 <__vector_1+0x50>
			{
				I2C_SLAVE_haveSended = 0;
     5e0:	10 92 1f 01 	sts	0x011F, r1	; 0x80011f <I2C_SLAVE_haveSended>
				I2C_SLAVE_DDR &= ~(1 << I2C_SLAVE_SDA | 1 << I2C_SLAVE_SCL);
     5e4:	8a b1       	in	r24, 0x0a	; 10
     5e6:	8b 7e       	andi	r24, 0xEB	; 235
     5e8:	8a b9       	out	0x0a, r24	; 10
				I2C_SLAVE_PORT |= (1 << I2C_SLAVE_SDA | 1 << I2C_SLAVE_SCL);
     5ea:	8b b1       	in	r24, 0x0b	; 11
     5ec:	84 61       	ori	r24, 0x14	; 20
     5ee:	8b b9       	out	0x0b, r24	; 11
			}
			//First 7 bits read Address.
			if(I2C_SLAVE_recevedBits < 7)
     5f0:	80 91 23 01 	lds	r24, 0x0123	; 0x800123 <I2C_SLAVE_recevedBits>
     5f4:	87 30       	cpi	r24, 0x07	; 7
     5f6:	20 f5       	brcc	.+72     	; 0x640 <__vector_1+0xa0>
			{
				I2C_SLAVE_recevedAddr = I2C_SLAVE_SET_BIT(I2C_SLAVE_recevedAddr,6-I2C_SLAVE_recevedBits,I2C_SLAVE_PIN,I2C_SLAVE_SDA);
     5f8:	66 e0       	ldi	r22, 0x06	; 6
     5fa:	70 e0       	ldi	r23, 0x00	; 0
     5fc:	68 1b       	sub	r22, r24
     5fe:	71 09       	sbc	r23, r1
     600:	21 e0       	ldi	r18, 0x01	; 1
     602:	30 e0       	ldi	r19, 0x00	; 0
     604:	a9 01       	movw	r20, r18
     606:	06 2e       	mov	r0, r22
     608:	02 c0       	rjmp	.+4      	; 0x60e <__vector_1+0x6e>
     60a:	44 0f       	add	r20, r20
     60c:	55 1f       	adc	r21, r21
     60e:	0a 94       	dec	r0
     610:	e2 f7       	brpl	.-8      	; 0x60a <__vector_1+0x6a>
     612:	99 b1       	in	r25, 0x09	; 9
     614:	54 2f       	mov	r21, r20
     616:	50 95       	com	r21
     618:	20 91 24 01 	lds	r18, 0x0124	; 0x800124 <I2C_SLAVE_recevedAddr>
     61c:	52 23       	and	r21, r18
     61e:	92 95       	swap	r25
     620:	9f 70       	andi	r25, 0x0F	; 15
     622:	29 2f       	mov	r18, r25
     624:	30 e0       	ldi	r19, 0x00	; 0
     626:	02 c0       	rjmp	.+4      	; 0x62c <__vector_1+0x8c>
     628:	22 0f       	add	r18, r18
     62a:	33 1f       	adc	r19, r19
     62c:	6a 95       	dec	r22
     62e:	e2 f7       	brpl	.-8      	; 0x628 <__vector_1+0x88>
     630:	24 23       	and	r18, r20
     632:	25 0f       	add	r18, r21
     634:	20 93 24 01 	sts	0x0124, r18	; 0x800124 <I2C_SLAVE_recevedAddr>
				I2C_SLAVE_recevedBits++;
     638:	8f 5f       	subi	r24, 0xFF	; 255
     63a:	80 93 23 01 	sts	0x0123, r24	; 0x800123 <I2C_SLAVE_recevedBits>
     63e:	1b c1       	rjmp	.+566    	; 0x876 <__vector_1+0x2d6>
			}
			//If address matching:
			else if(I2C_SLAVE_recevedAddr == I2C_SLAVE_ADDR && I2C_SLAVE_recevedBits < 8)
     640:	90 91 24 01 	lds	r25, 0x0124	; 0x800124 <I2C_SLAVE_recevedAddr>
     644:	90 37       	cpi	r25, 0x70	; 112
     646:	09 f0       	breq	.+2      	; 0x64a <__vector_1+0xaa>
     648:	16 c1       	rjmp	.+556    	; 0x876 <__vector_1+0x2d6>
     64a:	88 30       	cpi	r24, 0x08	; 8
     64c:	b8 f4       	brcc	.+46     	; 0x67c <__vector_1+0xdc>
			{
				
				I2C_SLAVE_recevedBits++;
     64e:	8f 5f       	subi	r24, 0xFF	; 255
     650:	80 93 23 01 	sts	0x0123, r24	; 0x800123 <I2C_SLAVE_recevedBits>
				//Read the readWrite bit.
				I2C_SLAVE_shouldWrite = I2C_SLAVE_SET_BIT(I2C_SLAVE_shouldWrite,0,I2C_SLAVE_PIN,I2C_SLAVE_SDA);
     654:	89 b1       	in	r24, 0x09	; 9
     656:	90 91 25 01 	lds	r25, 0x0125	; 0x800125 <I2C_SLAVE_shouldWrite>
     65a:	9e 7f       	andi	r25, 0xFE	; 254
     65c:	82 95       	swap	r24
     65e:	81 70       	andi	r24, 0x01	; 1
     660:	89 0f       	add	r24, r25
     662:	80 93 25 01 	sts	0x0125, r24	; 0x800125 <I2C_SLAVE_shouldWrite>
				//If it should write, begin hold is set to true.
				if(I2C_SLAVE_shouldWrite)
     666:	88 23       	and	r24, r24
     668:	19 f0       	breq	.+6      	; 0x670 <__vector_1+0xd0>
				{
					//This indicates that the line should be hold right after ack i send.
					I2C_SLAVE_beginHold = true;
     66a:	81 e0       	ldi	r24, 0x01	; 1
     66c:	80 93 1b 01 	sts	0x011B, r24	; 0x80011b <I2C_SLAVE_beginHold>
				}
				//Set buffer to ack-bit and begin sending.
				I2C_SLAVE_sendBit(0);
     670:	80 e0       	ldi	r24, 0x00	; 0
     672:	0e 94 53 00 	call	0xa6	; 0xa6 <I2C_SLAVE_sendBit>
				I2C_SLAVE_beginSend();
     676:	0e 94 6b 00 	call	0xd6	; 0xd6 <I2C_SLAVE_beginSend>
     67a:	fd c0       	rjmp	.+506    	; 0x876 <__vector_1+0x2d6>
			}
			else if(I2C_SLAVE_recevedAddr == I2C_SLAVE_ADDR && I2C_SLAVE_recevedBits < (17))
     67c:	81 31       	cpi	r24, 0x11	; 17
     67e:	08 f0       	brcs	.+2      	; 0x682 <__vector_1+0xe2>
     680:	fa c0       	rjmp	.+500    	; 0x876 <__vector_1+0x2d6>
			{
				//If read from master after ack-send if I2C_SLAVE_shouldWrite is false.
				I2C_SLAVE_recevedData = I2C_SLAVE_SET_BIT(I2C_SLAVE_recevedData,7-(I2C_SLAVE_recevedBits-8),I2C_SLAVE_PIN,I2C_SLAVE_SDA);
     682:	6f e0       	ldi	r22, 0x0F	; 15
     684:	70 e0       	ldi	r23, 0x00	; 0
     686:	68 1b       	sub	r22, r24
     688:	71 09       	sbc	r23, r1
     68a:	21 e0       	ldi	r18, 0x01	; 1
     68c:	30 e0       	ldi	r19, 0x00	; 0
     68e:	a9 01       	movw	r20, r18
     690:	06 2e       	mov	r0, r22
     692:	02 c0       	rjmp	.+4      	; 0x698 <__vector_1+0xf8>
     694:	44 0f       	add	r20, r20
     696:	55 1f       	adc	r21, r21
     698:	0a 94       	dec	r0
     69a:	e2 f7       	brpl	.-8      	; 0x694 <__vector_1+0xf4>
     69c:	99 b1       	in	r25, 0x09	; 9
     69e:	54 2f       	mov	r21, r20
     6a0:	50 95       	com	r21
     6a2:	20 91 1e 01 	lds	r18, 0x011E	; 0x80011e <I2C_SLAVE_recevedData>
     6a6:	52 23       	and	r21, r18
     6a8:	92 95       	swap	r25
     6aa:	9f 70       	andi	r25, 0x0F	; 15
     6ac:	29 2f       	mov	r18, r25
     6ae:	30 e0       	ldi	r19, 0x00	; 0
     6b0:	02 c0       	rjmp	.+4      	; 0x6b6 <__vector_1+0x116>
     6b2:	22 0f       	add	r18, r18
     6b4:	33 1f       	adc	r19, r19
     6b6:	6a 95       	dec	r22
     6b8:	e2 f7       	brpl	.-8      	; 0x6b2 <__vector_1+0x112>
     6ba:	24 23       	and	r18, r20
     6bc:	25 0f       	add	r18, r21
     6be:	20 93 1e 01 	sts	0x011E, r18	; 0x80011e <I2C_SLAVE_recevedData>
				I2C_SLAVE_recevedBits++;
     6c2:	8f 5f       	subi	r24, 0xFF	; 255
     6c4:	80 93 23 01 	sts	0x0123, r24	; 0x800123 <I2C_SLAVE_recevedBits>
				if(I2C_SLAVE_recevedBits == 16)
     6c8:	80 31       	cpi	r24, 0x10	; 16
     6ca:	09 f0       	breq	.+2      	; 0x6ce <__vector_1+0x12e>
     6cc:	d4 c0       	rjmp	.+424    	; 0x876 <__vector_1+0x2d6>
}

static void I2C_SLAVE_addData(char data)
{
	//If the buffer is full, then the oldest data will be overwritten moving first data one.
	if(I2C_SLAVE_full)
     6ce:	80 91 18 01 	lds	r24, 0x0118	; 0x800118 <I2C_SLAVE_full>
     6d2:	88 23       	and	r24, r24
     6d4:	69 f0       	breq	.+26     	; 0x6f0 <__vector_1+0x150>
}

static unsigned char I2C_SLAVE_inc(volatile unsigned char * num)
{
	//Save return value.
	unsigned char temp = *num;
     6d6:	80 91 1a 01 	lds	r24, 0x011A	; 0x80011a <I2C_SLAVE_first>

	//Incrementing number 
	(*num)++;
     6da:	80 91 1a 01 	lds	r24, 0x011A	; 0x80011a <I2C_SLAVE_first>
     6de:	8f 5f       	subi	r24, 0xFF	; 255
     6e0:	80 93 1a 01 	sts	0x011A, r24	; 0x80011a <I2C_SLAVE_first>
	
	//If number is higher than receive buffer length then its reset to 0.
	if(*num >= I2C_SLAVE_BUFFER_LENGTH)
     6e4:	80 91 1a 01 	lds	r24, 0x011A	; 0x80011a <I2C_SLAVE_first>
     6e8:	8a 30       	cpi	r24, 0x0A	; 10
     6ea:	10 f0       	brcs	.+4      	; 0x6f0 <__vector_1+0x150>
	{
		*num = 0;
     6ec:	10 92 1a 01 	sts	0x011A, r1	; 0x80011a <I2C_SLAVE_first>
}

static unsigned char I2C_SLAVE_inc(volatile unsigned char * num)
{
	//Save return value.
	unsigned char temp = *num;
     6f0:	e0 91 19 01 	lds	r30, 0x0119	; 0x800119 <I2C_SLAVE_last>

	//Incrementing number 
	(*num)++;
     6f4:	80 91 19 01 	lds	r24, 0x0119	; 0x800119 <I2C_SLAVE_last>
     6f8:	8f 5f       	subi	r24, 0xFF	; 255
     6fa:	80 93 19 01 	sts	0x0119, r24	; 0x800119 <I2C_SLAVE_last>
	
	//If number is higher than receive buffer length then its reset to 0.
	if(*num >= I2C_SLAVE_BUFFER_LENGTH)
     6fe:	80 91 19 01 	lds	r24, 0x0119	; 0x800119 <I2C_SLAVE_last>
     702:	8a 30       	cpi	r24, 0x0A	; 10
     704:	10 f0       	brcs	.+4      	; 0x70a <__vector_1+0x16a>
	{
		*num = 0;
     706:	10 92 19 01 	sts	0x0119, r1	; 0x800119 <I2C_SLAVE_last>
	if(I2C_SLAVE_full)
	{
		I2C_SLAVE_inc(&I2C_SLAVE_first);
	}
	//Sets last data and increments last. (Hence last will always be the length of the data in the buffer)
	I2C_SLAVE_Buffer[I2C_SLAVE_inc(&I2C_SLAVE_last)] = data;
     70a:	f0 e0       	ldi	r31, 0x00	; 0
     70c:	e2 5f       	subi	r30, 0xF2	; 242
     70e:	fe 4f       	sbci	r31, 0xFE	; 254
     710:	20 83       	st	Z, r18
	//If last position is the same as first the buffer is either full or empty. Therefor at boolean is sat if its full.
	if(I2C_SLAVE_last == I2C_SLAVE_first)
     712:	90 91 19 01 	lds	r25, 0x0119	; 0x800119 <I2C_SLAVE_last>
     716:	80 91 1a 01 	lds	r24, 0x011A	; 0x80011a <I2C_SLAVE_first>
     71a:	98 13       	cpse	r25, r24
     71c:	03 c0       	rjmp	.+6      	; 0x724 <__vector_1+0x184>
	{
		I2C_SLAVE_full = true;
     71e:	81 e0       	ldi	r24, 0x01	; 1
     720:	80 93 18 01 	sts	0x0118, r24	; 0x800118 <I2C_SLAVE_full>
				I2C_SLAVE_recevedBits++;
				if(I2C_SLAVE_recevedBits == 16)
				{
					//When all bits send add data and ack.
					I2C_SLAVE_addData(I2C_SLAVE_recevedData);
					I2C_SLAVE_sendBit(0);
     724:	80 e0       	ldi	r24, 0x00	; 0
     726:	0e 94 53 00 	call	0xa6	; 0xa6 <I2C_SLAVE_sendBit>
					I2C_SLAVE_beginSend();
     72a:	0e 94 6b 00 	call	0xd6	; 0xd6 <I2C_SLAVE_beginSend>
					//Return to bit 8 to continue reading. (Only reading more bytes in one header is not implemented yet.)
					I2C_SLAVE_recevedBits = 8;
     72e:	88 e0       	ldi	r24, 0x08	; 8
     730:	80 93 23 01 	sts	0x0123, r24	; 0x800123 <I2C_SLAVE_recevedBits>
     734:	a0 c0       	rjmp	.+320    	; 0x876 <__vector_1+0x2d6>
				}
			}
		}
		//If SCL is triggering on falling edge i.e. it's currently writing on SDA.
		else if(I2C_SLAVE_SCL_IS_FALLING())
     736:	80 91 69 00 	lds	r24, 0x0069	; 0x800069 <__DATA_REGION_ORIGIN__+0x9>
     73a:	83 70       	andi	r24, 0x03	; 3
     73c:	82 30       	cpi	r24, 0x02	; 2
     73e:	09 f0       	breq	.+2      	; 0x742 <__vector_1+0x1a2>
     740:	9a c0       	rjmp	.+308    	; 0x876 <__vector_1+0x2d6>
		{
			//Checks if all data is send.
			if(I2C_SLAVE_haveSended > 7)
     742:	30 91 1f 01 	lds	r19, 0x011F	; 0x80011f <I2C_SLAVE_haveSended>
     746:	38 30       	cpi	r19, 0x08	; 8
     748:	08 f4       	brcc	.+2      	; 0x74c <__vector_1+0x1ac>
     74a:	5d c0       	rjmp	.+186    	; 0x806 <__vector_1+0x266>
			{
				//Updates buffer with temporary buffer if I2C_SLAVE_dataReady is 2 or 3.
				if((I2C_SLAVE_dataReady == 2 || I2C_SLAVE_dataReady == 3))
     74c:	80 91 20 01 	lds	r24, 0x0120	; 0x800120 <I2C_SLAVE_dataReady>
     750:	82 50       	subi	r24, 0x02	; 2
     752:	82 30       	cpi	r24, 0x02	; 2
     754:	c8 f5       	brcc	.+114    	; 0x7c8 <__vector_1+0x228>
				{
					
					I2C_SLAVE_dataReady = 1;
     756:	81 e0       	ldi	r24, 0x01	; 1
     758:	80 93 20 01 	sts	0x0120, r24	; 0x800120 <I2C_SLAVE_dataReady>
					I2C_SLAVE_toSend = I2C_SLAVE_tempSave;
     75c:	80 91 21 01 	lds	r24, 0x0121	; 0x800121 <I2C_SLAVE_tempSave>
     760:	80 93 22 01 	sts	0x0122, r24	; 0x800122 <I2C_SLAVE_toSend>
					if (I2C_SLAVE_shouldWrite)
     764:	80 91 25 01 	lds	r24, 0x0125	; 0x800125 <I2C_SLAVE_shouldWrite>
     768:	88 23       	and	r24, r24
     76a:	59 f1       	breq	.+86     	; 0x7c2 <__vector_1+0x222>
					{
						I2C_SLAVE_haveSended = 1;
     76c:	81 e0       	ldi	r24, 0x01	; 1
     76e:	80 93 1f 01 	sts	0x011F, r24	; 0x80011f <I2C_SLAVE_haveSended>
						I2C_SLAVE_DDR = I2C_SLAVE_SET_BIT(I2C_SLAVE_DDR,I2C_SLAVE_SDA,(~I2C_SLAVE_toSend),7);
     772:	2a b1       	in	r18, 0x0a	; 10
     774:	80 91 22 01 	lds	r24, 0x0122	; 0x800122 <I2C_SLAVE_toSend>
     778:	90 e0       	ldi	r25, 0x00	; 0
     77a:	80 95       	com	r24
     77c:	90 95       	com	r25
     77e:	88 0f       	add	r24, r24
     780:	89 2f       	mov	r24, r25
     782:	88 1f       	adc	r24, r24
     784:	99 0b       	sbc	r25, r25
     786:	82 95       	swap	r24
     788:	92 95       	swap	r25
     78a:	90 7f       	andi	r25, 0xF0	; 240
     78c:	98 27       	eor	r25, r24
     78e:	80 7f       	andi	r24, 0xF0	; 240
     790:	98 27       	eor	r25, r24
     792:	80 71       	andi	r24, 0x10	; 16
     794:	92 2f       	mov	r25, r18
     796:	9f 7e       	andi	r25, 0xEF	; 239
     798:	89 0f       	add	r24, r25
     79a:	8a b9       	out	0x0a, r24	; 10
						I2C_SLAVE_PORT = I2C_SLAVE_SET_BIT(I2C_SLAVE_PORT,I2C_SLAVE_SDA,I2C_SLAVE_toSend,7);
     79c:	2b b1       	in	r18, 0x0b	; 11
     79e:	80 91 22 01 	lds	r24, 0x0122	; 0x800122 <I2C_SLAVE_toSend>
     7a2:	88 1f       	adc	r24, r24
     7a4:	88 27       	eor	r24, r24
     7a6:	88 1f       	adc	r24, r24
     7a8:	90 e0       	ldi	r25, 0x00	; 0
     7aa:	82 95       	swap	r24
     7ac:	92 95       	swap	r25
     7ae:	90 7f       	andi	r25, 0xF0	; 240
     7b0:	98 27       	eor	r25, r24
     7b2:	80 7f       	andi	r24, 0xF0	; 240
     7b4:	98 27       	eor	r25, r24
     7b6:	80 71       	andi	r24, 0x10	; 16
     7b8:	92 2f       	mov	r25, r18
     7ba:	9f 7e       	andi	r25, 0xEF	; 239
     7bc:	89 0f       	add	r24, r25
     7be:	8b b9       	out	0x0b, r24	; 11
     7c0:	07 c0       	rjmp	.+14     	; 0x7d0 <__vector_1+0x230>
					}
					else
					{
						I2C_SLAVE_DDR &= ~(1 << I2C_SLAVE_SDA);
     7c2:	54 98       	cbi	0x0a, 4	; 10
						I2C_SLAVE_PORT |= (1 << I2C_SLAVE_SDA);
     7c4:	5c 9a       	sbi	0x0b, 4	; 11
     7c6:	04 c0       	rjmp	.+8      	; 0x7d0 <__vector_1+0x230>
				}
				else
				{
					//Frees SDA if done sending.
					
					I2C_SLAVE_dataReady = 0;
     7c8:	10 92 20 01 	sts	0x0120, r1	; 0x800120 <I2C_SLAVE_dataReady>
					I2C_SLAVE_DDR &= ~(1 << I2C_SLAVE_SDA);
     7cc:	54 98       	cbi	0x0a, 4	; 10
					I2C_SLAVE_PORT |= (1 << I2C_SLAVE_SDA);	
     7ce:	5c 9a       	sbi	0x0b, 4	; 11
				}
				if(I2C_SLAVE_beginHold)
     7d0:	80 91 1b 01 	lds	r24, 0x011B	; 0x80011b <I2C_SLAVE_beginHold>
     7d4:	88 23       	and	r24, r24
     7d6:	71 f0       	breq	.+28     	; 0x7f4 <__vector_1+0x254>
}

static int I2C_SLAVE_hold()
{
	//If data is ready then it sets beginHold false and returns true.
	if(I2C_SLAVE_dataReady == 1 || I2C_SLAVE_dataReady == 2)
     7d8:	80 91 20 01 	lds	r24, 0x0120	; 0x800120 <I2C_SLAVE_dataReady>
     7dc:	81 50       	subi	r24, 0x01	; 1
     7de:	82 30       	cpi	r24, 0x02	; 2
     7e0:	18 f4       	brcc	.+6      	; 0x7e8 <__vector_1+0x248>
	{
		I2C_SLAVE_beginHold = false;
     7e2:	10 92 1b 01 	sts	0x011B, r1	; 0x80011b <I2C_SLAVE_beginHold>
     7e6:	47 c0       	rjmp	.+142    	; 0x876 <__vector_1+0x2d6>
		return 1;
	}
	else
	{
		I2C_SLAVE_canSend = true;
     7e8:	81 e0       	ldi	r24, 0x01	; 1
     7ea:	80 93 1c 01 	sts	0x011C, r24	; 0x80011c <I2C_SLAVE_canSend>
		//If no data is ready, then SCL is pulled low.
		I2C_SLAVE_DDR  |=  1 << I2C_SLAVE_SCL;
     7ee:	52 9a       	sbi	0x0a, 2	; 10
		I2C_SLAVE_PORT &=  ~(1 << I2C_SLAVE_SCL);
     7f0:	5a 98       	cbi	0x0b, 2	; 11
     7f2:	41 c0       	rjmp	.+130    	; 0x876 <__vector_1+0x2d6>
				}
				else
				{
					//More work here needs to be done in order to be able to write multiple bytes.
					//Returns the line to reading
					I2C_SLAVE_SCL_RISING();
     7f4:	e9 e6       	ldi	r30, 0x69	; 105
     7f6:	f0 e0       	ldi	r31, 0x00	; 0
     7f8:	80 81       	ld	r24, Z
     7fa:	82 60       	ori	r24, 0x02	; 2
     7fc:	80 83       	st	Z, r24
     7fe:	80 81       	ld	r24, Z
     800:	81 60       	ori	r24, 0x01	; 1
     802:	80 83       	st	Z, r24
     804:	38 c0       	rjmp	.+112    	; 0x876 <__vector_1+0x2d6>
				}
			}
			else
			{
				I2C_SLAVE_DDR = I2C_SLAVE_SET_BIT(I2C_SLAVE_DDR,I2C_SLAVE_SDA,~I2C_SLAVE_toSend,(7-I2C_SLAVE_haveSended));
     806:	2a b1       	in	r18, 0x0a	; 10
     808:	80 91 22 01 	lds	r24, 0x0122	; 0x800122 <I2C_SLAVE_toSend>
     80c:	90 e0       	ldi	r25, 0x00	; 0
     80e:	80 95       	com	r24
     810:	90 95       	com	r25
     812:	47 e0       	ldi	r20, 0x07	; 7
     814:	50 e0       	ldi	r21, 0x00	; 0
     816:	ba 01       	movw	r22, r20
     818:	63 1b       	sub	r22, r19
     81a:	71 09       	sbc	r23, r1
     81c:	02 c0       	rjmp	.+4      	; 0x822 <__vector_1+0x282>
     81e:	95 95       	asr	r25
     820:	87 95       	ror	r24
     822:	6a 95       	dec	r22
     824:	e2 f7       	brpl	.-8      	; 0x81e <__vector_1+0x27e>
     826:	82 95       	swap	r24
     828:	92 95       	swap	r25
     82a:	90 7f       	andi	r25, 0xF0	; 240
     82c:	98 27       	eor	r25, r24
     82e:	80 7f       	andi	r24, 0xF0	; 240
     830:	98 27       	eor	r25, r24
     832:	80 71       	andi	r24, 0x10	; 16
     834:	92 2f       	mov	r25, r18
     836:	9f 7e       	andi	r25, 0xEF	; 239
     838:	89 0f       	add	r24, r25
     83a:	8a b9       	out	0x0a, r24	; 10
				I2C_SLAVE_PORT = I2C_SLAVE_SET_BIT(I2C_SLAVE_PORT,I2C_SLAVE_SDA,I2C_SLAVE_toSend,(7-I2C_SLAVE_haveSended));
     83c:	2b b1       	in	r18, 0x0b	; 11
     83e:	80 91 22 01 	lds	r24, 0x0122	; 0x800122 <I2C_SLAVE_toSend>
     842:	90 e0       	ldi	r25, 0x00	; 0
     844:	30 91 1f 01 	lds	r19, 0x011F	; 0x80011f <I2C_SLAVE_haveSended>
     848:	43 1b       	sub	r20, r19
     84a:	51 09       	sbc	r21, r1
     84c:	02 c0       	rjmp	.+4      	; 0x852 <__vector_1+0x2b2>
     84e:	95 95       	asr	r25
     850:	87 95       	ror	r24
     852:	4a 95       	dec	r20
     854:	e2 f7       	brpl	.-8      	; 0x84e <__vector_1+0x2ae>
     856:	82 95       	swap	r24
     858:	92 95       	swap	r25
     85a:	90 7f       	andi	r25, 0xF0	; 240
     85c:	98 27       	eor	r25, r24
     85e:	80 7f       	andi	r24, 0xF0	; 240
     860:	98 27       	eor	r25, r24
     862:	80 71       	andi	r24, 0x10	; 16
     864:	92 2f       	mov	r25, r18
     866:	9f 7e       	andi	r25, 0xEF	; 239
     868:	89 0f       	add	r24, r25
     86a:	8b b9       	out	0x0b, r24	; 11
				
				I2C_SLAVE_haveSended++;
     86c:	80 91 1f 01 	lds	r24, 0x011F	; 0x80011f <I2C_SLAVE_haveSended>
     870:	8f 5f       	subi	r24, 0xFF	; 255
     872:	80 93 1f 01 	sts	0x011F, r24	; 0x80011f <I2C_SLAVE_haveSended>
			}
		}
	}
	
}
     876:	ff 91       	pop	r31
     878:	ef 91       	pop	r30
     87a:	bf 91       	pop	r27
     87c:	af 91       	pop	r26
     87e:	9f 91       	pop	r25
     880:	8f 91       	pop	r24
     882:	7f 91       	pop	r23
     884:	6f 91       	pop	r22
     886:	5f 91       	pop	r21
     888:	4f 91       	pop	r20
     88a:	3f 91       	pop	r19
     88c:	2f 91       	pop	r18
     88e:	0f 90       	pop	r0
     890:	0f be       	out	0x3f, r0	; 63
     892:	0f 90       	pop	r0
     894:	1f 90       	pop	r1
     896:	18 95       	reti

00000898 <__vector_5>:

//SDA interrupt for handling stop and start bit.
ISR(I2C_SLAVE_SDA_vect)
{
     898:	1f 92       	push	r1
     89a:	0f 92       	push	r0
     89c:	0f b6       	in	r0, 0x3f	; 63
     89e:	0f 92       	push	r0
     8a0:	11 24       	eor	r1, r1
     8a2:	8f 93       	push	r24
     8a4:	ef 93       	push	r30
     8a6:	ff 93       	push	r31
	//Both stop and start bit is triggered while SCL is high.
	if((I2C_SLAVE_PIN & (1 << I2C_SLAVE_SCL)) ==(1 << I2C_SLAVE_SCL))
     8a8:	4a 9b       	sbis	0x09, 2	; 9
     8aa:	1e c0       	rjmp	.+60     	; 0x8e8 <__vector_5+0x50>
	{
		//If SDA is high then the interrupt was triggered on a rising edge and therefore it's a stop-bit.
		if(I2C_SLAVE_PIN & (1 << I2C_SLAVE_SDA))
     8ac:	4c 9b       	sbis	0x09, 4	; 9
     8ae:	03 c0       	rjmp	.+6      	; 0x8b6 <__vector_5+0x1e>
		{
			I2C_SLAVE_startRecived = false;
     8b0:	10 92 1d 01 	sts	0x011D, r1	; 0x80011d <I2C_SLAVE_startRecived>
     8b4:	03 c0       	rjmp	.+6      	; 0x8bc <__vector_5+0x24>
		}
		//Else it is a start-bit.
		else
		{
			I2C_SLAVE_startRecived = true;
     8b6:	81 e0       	ldi	r24, 0x01	; 1
     8b8:	80 93 1d 01 	sts	0x011D, r24	; 0x80011d <I2C_SLAVE_startRecived>
		}
		//If it was a stop-bit reset received data, and set SCL trigger to rising.
		if(I2C_SLAVE_startRecived == false)
     8bc:	80 91 1d 01 	lds	r24, 0x011D	; 0x80011d <I2C_SLAVE_startRecived>
     8c0:	81 11       	cpse	r24, r1
     8c2:	12 c0       	rjmp	.+36     	; 0x8e8 <__vector_5+0x50>
		{
			I2C_SLAVE_beginHold = false;
     8c4:	10 92 1b 01 	sts	0x011B, r1	; 0x80011b <I2C_SLAVE_beginHold>
			I2C_SLAVE_canSend = false;
     8c8:	10 92 1c 01 	sts	0x011C, r1	; 0x80011c <I2C_SLAVE_canSend>
			I2C_SLAVE_recevedAddr = 0;
     8cc:	10 92 24 01 	sts	0x0124, r1	; 0x800124 <I2C_SLAVE_recevedAddr>
			I2C_SLAVE_shouldWrite = 0;
     8d0:	10 92 25 01 	sts	0x0125, r1	; 0x800125 <I2C_SLAVE_shouldWrite>
			I2C_SLAVE_recevedBits = 0;
     8d4:	10 92 23 01 	sts	0x0123, r1	; 0x800123 <I2C_SLAVE_recevedBits>
			I2C_SLAVE_SCL_RISING();
     8d8:	e9 e6       	ldi	r30, 0x69	; 105
     8da:	f0 e0       	ldi	r31, 0x00	; 0
     8dc:	80 81       	ld	r24, Z
     8de:	82 60       	ori	r24, 0x02	; 2
     8e0:	80 83       	st	Z, r24
     8e2:	80 81       	ld	r24, Z
     8e4:	81 60       	ori	r24, 0x01	; 1
     8e6:	80 83       	st	Z, r24
		}
	}
}
     8e8:	ff 91       	pop	r31
     8ea:	ef 91       	pop	r30
     8ec:	8f 91       	pop	r24
     8ee:	0f 90       	pop	r0
     8f0:	0f be       	out	0x3f, r0	; 63
     8f2:	0f 90       	pop	r0
     8f4:	1f 90       	pop	r1
     8f6:	18 95       	reti

000008f8 <init_motors>:

static void startTimer2();
static void stopTimer2();
static void startTimePan2();

void init_motors(){
     8f8:	1f 93       	push	r17
     8fa:	cf 93       	push	r28
     8fc:	df 93       	push	r29
	
	//Set pins as output
	MOTOR1_DIR_PORT_DDR |= (1 << MOTOR1_DIR_PIN_LOCATION1) | (1 << MOTOR1_DIR_PIN_LOCATION2);
     8fe:	8a b1       	in	r24, 0x0a	; 10
     900:	88 68       	ori	r24, 0x88	; 136
     902:	8a b9       	out	0x0a, r24	; 10
	MOTOR2_DIR_PORT_DDR |= (1 << MOTOR2_DIR_PIN_LOCATION1) | (1 << MOTOR2_DIR_PIN_LOCATION2);
     904:	87 b1       	in	r24, 0x07	; 7
     906:	80 63       	ori	r24, 0x30	; 48
     908:	87 b9       	out	0x07, r24	; 7
	
	//Set enable pins to output low as default
	MOTOR1_ENABLE_PORT_DDR |= (1 << MOTOR1_EN_PIN_LOCATION);
     90a:	55 9a       	sbi	0x0a, 5	; 10
	MOTOR2_ENABLE_PORT_DDR |= (1 << MOTOR2_EN_PIN_LOCATION);
     90c:	56 9a       	sbi	0x0a, 6	; 10
	MOTOR1_ENABLE_PORT &= ~(1 << MOTOR1_EN_PIN_LOCATION);
     90e:	5d 98       	cbi	0x0b, 5	; 11
	MOTOR2_ENABLE_PORT &= ~(1 << MOTOR2_EN_PIN_LOCATION);
     910:	5e 98       	cbi	0x0b, 6	; 11
	
	//Set motor to off
	MOTOR1_SETING(MOTOR_OFF);
     912:	5b 9a       	sbi	0x0b, 3	; 11
     914:	5f 9a       	sbi	0x0b, 7	; 11
	MOTOR2_SETING(MOTOR_OFF);
     916:	44 9a       	sbi	0x08, 4	; 8
     918:	45 9a       	sbi	0x08, 5	; 8
	
	//Disable motors
	MOTOR1_DISABLE();
     91a:	84 b5       	in	r24, 0x24	; 36
     91c:	8f 7c       	andi	r24, 0xCF	; 207
     91e:	84 bd       	out	0x24, r24	; 36
	MOTOR2_DISABLE();
     920:	84 b5       	in	r24, 0x24	; 36
     922:	8f 73       	andi	r24, 0x3F	; 63
     924:	84 bd       	out	0x24, r24	; 36
	
		
	//Setup timer 0 PWMs for the motors
	PRR &= ~(1 << PRTIM0);
     926:	c4 e6       	ldi	r28, 0x64	; 100
     928:	d0 e0       	ldi	r29, 0x00	; 0
     92a:	88 81       	ld	r24, Y
     92c:	8f 7d       	andi	r24, 0xDF	; 223
     92e:	88 83       	st	Y, r24
	
	// phase correct PWM mode, prescaler = 256, freq ~ 61,27451 Hz (8000000/(256*510)
	TCCR0A = (1 << WGM00);
     930:	11 e0       	ldi	r17, 0x01	; 1
     932:	14 bd       	out	0x24, r17	; 36
	TCCR0B = (1 << CS02);
     934:	84 e0       	ldi	r24, 0x04	; 4
     936:	85 bd       	out	0x25, r24	; 37
	
	//Set PWM for the motors
	setMotorPWM(0, MOTOR1);
     938:	60 e0       	ldi	r22, 0x00	; 0
     93a:	80 e0       	ldi	r24, 0x00	; 0
     93c:	0e 94 be 00 	call	0x17c	; 0x17c <setMotorPWM>
	setMotorPWM(0, MOTOR2);
     940:	61 e0       	ldi	r22, 0x01	; 1
     942:	80 e0       	ldi	r24, 0x00	; 0
     944:	0e 94 be 00 	call	0x17c	; 0x17c <setMotorPWM>
	
	//Setup timer 2 to 125 Hz and TOF interrupt, prescaler = 256, OCRA = 249 (16000000 Hz/(256*250) = 250 Hz (error = 125 +- 1Hz)
	PRR &= ~(1 << PRTIM2);
     948:	88 81       	ld	r24, Y
     94a:	8f 7b       	andi	r24, 0xBF	; 191
     94c:	88 83       	st	Y, r24
	TCCR2A = (1 << WGM21) | (1 << WGM20);
     94e:	83 e0       	ldi	r24, 0x03	; 3
     950:	80 93 b0 00 	sts	0x00B0, r24	; 0x8000b0 <__DATA_REGION_ORIGIN__+0x50>
	TCCR2B = (1 << WGM22);
     954:	88 e0       	ldi	r24, 0x08	; 8
     956:	80 93 b1 00 	sts	0x00B1, r24	; 0x8000b1 <__DATA_REGION_ORIGIN__+0x51>
	OCR2A = TIMER2_TOP;
     95a:	89 ef       	ldi	r24, 0xF9	; 249
     95c:	80 93 b3 00 	sts	0x00B3, r24	; 0x8000b3 <__DATA_REGION_ORIGIN__+0x53>
	TIMSK2 = (1 << TOIE2);
     960:	10 93 70 00 	sts	0x0070, r17	; 0x800070 <__DATA_REGION_ORIGIN__+0x10>
	
}
     964:	df 91       	pop	r29
     966:	cf 91       	pop	r28
     968:	1f 91       	pop	r17
     96a:	08 95       	ret

0000096c <startTimePan1>:

void startTimePan1(){
	
	//Set internal flag
	pan1_cooking_time = 0;
     96c:	10 92 05 01 	sts	0x0105, r1	; 0x800105 <pan1_cooking_time+0x1>
     970:	10 92 04 01 	sts	0x0104, r1	; 0x800104 <pan1_cooking_time>
	pan1Free = false;
     974:	10 92 01 01 	sts	0x0101, r1	; 0x800101 <pan1Free>
     978:	08 95       	ret

0000097a <flipPan1>:
	}
}

void flipPan1(){
	
	motor_flipping = MOTOR1;
     97a:	10 92 0b 01 	sts	0x010B, r1	; 0x80010b <motor_flipping>
	setMotorPWM(MOTOR_OPTIMUM_PWM_FORWARD, motor_flipping);
     97e:	60 91 0b 01 	lds	r22, 0x010B	; 0x80010b <motor_flipping>
     982:	81 e2       	ldi	r24, 0x21	; 33
     984:	0e 94 be 00 	call	0x17c	; 0x17c <setMotorPWM>
	
	//Flip forward
	MOTOR1_SETING(MOTOR_FORWARD);
     988:	5b 9a       	sbi	0x0b, 3	; 11
     98a:	5f 98       	cbi	0x0b, 7	; 11
	MOTOR1_ENABLE();
     98c:	84 b5       	in	r24, 0x24	; 36
     98e:	80 63       	ori	r24, 0x30	; 48
     990:	84 bd       	out	0x24, r24	; 36
	startTimer2();
	
}

static void startTimer2(){
	curr_time = 0;
     992:	10 92 0d 01 	sts	0x010D, r1	; 0x80010d <curr_time+0x1>
     996:	10 92 0c 01 	sts	0x010C, r1	; 0x80010c <curr_time>
	TCCR2B |= (1 << CS22) | (1 << CS20);
     99a:	e1 eb       	ldi	r30, 0xB1	; 177
     99c:	f0 e0       	ldi	r31, 0x00	; 0
     99e:	80 81       	ld	r24, Z
     9a0:	85 60       	ori	r24, 0x05	; 5
     9a2:	80 83       	st	Z, r24
     9a4:	08 95       	ret

000009a6 <flipPan2>:
	startTimer2();
}

void flipPan2(){
	
	motor_flipping = MOTOR2;
     9a6:	81 e0       	ldi	r24, 0x01	; 1
     9a8:	80 93 0b 01 	sts	0x010B, r24	; 0x80010b <motor_flipping>
	setMotorPWM(MOTOR_OPTIMUM_PWM_FORWARD, motor_flipping);
     9ac:	60 91 0b 01 	lds	r22, 0x010B	; 0x80010b <motor_flipping>
     9b0:	81 e2       	ldi	r24, 0x21	; 33
     9b2:	0e 94 be 00 	call	0x17c	; 0x17c <setMotorPWM>
	
	//Flip forward
	MOTOR2_SETING(MOTOR_FORWARD);
     9b6:	44 9a       	sbi	0x08, 4	; 8
     9b8:	45 98       	cbi	0x08, 5	; 8
	MOTOR2_ENABLE();
     9ba:	84 b5       	in	r24, 0x24	; 36
     9bc:	80 6c       	ori	r24, 0xC0	; 192
     9be:	84 bd       	out	0x24, r24	; 36
	startTimer2();
	
}

static void startTimer2(){
	curr_time = 0;
     9c0:	10 92 0d 01 	sts	0x010D, r1	; 0x80010d <curr_time+0x1>
     9c4:	10 92 0c 01 	sts	0x010C, r1	; 0x80010c <curr_time>
	TCCR2B |= (1 << CS22) | (1 << CS20);
     9c8:	e1 eb       	ldi	r30, 0xB1	; 177
     9ca:	f0 e0       	ldi	r31, 0x00	; 0
     9cc:	80 81       	ld	r24, Z
     9ce:	85 60       	ori	r24, 0x05	; 5
     9d0:	80 83       	st	Z, r24
     9d2:	08 95       	ret

000009d4 <__vector_9>:
	
	//Reset count
	TCNT2 = 0x00;
}

ISR(TIMER2_OVF_vect) {
     9d4:	1f 92       	push	r1
     9d6:	0f 92       	push	r0
     9d8:	0f b6       	in	r0, 0x3f	; 63
     9da:	0f 92       	push	r0
     9dc:	11 24       	eor	r1, r1
     9de:	2f 93       	push	r18
     9e0:	3f 93       	push	r19
     9e2:	4f 93       	push	r20
     9e4:	5f 93       	push	r21
     9e6:	6f 93       	push	r22
     9e8:	7f 93       	push	r23
     9ea:	8f 93       	push	r24
     9ec:	9f 93       	push	r25
     9ee:	af 93       	push	r26
     9f0:	bf 93       	push	r27
     9f2:	ef 93       	push	r30
     9f4:	ff 93       	push	r31
	
	switch (curr_time++) {
     9f6:	80 91 0c 01 	lds	r24, 0x010C	; 0x80010c <curr_time>
     9fa:	90 91 0d 01 	lds	r25, 0x010D	; 0x80010d <curr_time+0x1>
     9fe:	9c 01       	movw	r18, r24
     a00:	2f 5f       	subi	r18, 0xFF	; 255
     a02:	3f 4f       	sbci	r19, 0xFF	; 255
     a04:	30 93 0d 01 	sts	0x010D, r19	; 0x80010d <curr_time+0x1>
     a08:	20 93 0c 01 	sts	0x010C, r18	; 0x80010c <curr_time>
     a0c:	86 3d       	cpi	r24, 0xD6	; 214
     a0e:	26 e0       	ldi	r18, 0x06	; 6
     a10:	92 07       	cpc	r25, r18
     a12:	71 f1       	breq	.+92     	; 0xa70 <__vector_9+0x9c>
     a14:	20 f4       	brcc	.+8      	; 0xa1e <__vector_9+0x4a>
     a16:	88 3e       	cpi	r24, 0xE8	; 232
     a18:	93 40       	sbci	r25, 0x03	; 3
     a1a:	51 f0       	breq	.+20     	; 0xa30 <__vector_9+0x5c>
     a1c:	6d c0       	rjmp	.+218    	; 0xaf8 <__vector_9+0x124>
     a1e:	8e 3b       	cpi	r24, 0xBE	; 190
     a20:	2a e0       	ldi	r18, 0x0A	; 10
     a22:	92 07       	cpc	r25, r18
     a24:	29 f0       	breq	.+10     	; 0xa30 <__vector_9+0x5c>
     a26:	8c 3a       	cpi	r24, 0xAC	; 172
     a28:	9d 40       	sbci	r25, 0x0D	; 13
     a2a:	09 f4       	brne	.+2      	; 0xa2e <__vector_9+0x5a>
     a2c:	47 c0       	rjmp	.+142    	; 0xabc <__vector_9+0xe8>
     a2e:	64 c0       	rjmp	.+200    	; 0xaf8 <__vector_9+0x124>
		
		//Mid way time to break
		case MOTOR_FORWARD_TIME_S:
		case MOTOR_BACKWARD_TIME_S:
			if (motor_flipping == MOTOR1) {
     a30:	80 91 0b 01 	lds	r24, 0x010B	; 0x80010b <motor_flipping>
     a34:	81 11       	cpse	r24, r1
     a36:	0e c0       	rjmp	.+28     	; 0xa54 <__vector_9+0x80>
				MOTOR1_DISABLE();
     a38:	84 b5       	in	r24, 0x24	; 36
     a3a:	8f 7c       	andi	r24, 0xCF	; 207
     a3c:	84 bd       	out	0x24, r24	; 36
				setMotorPWM(MOTOR_OPTIMUM_PWM_BREAK, motor_flipping);
     a3e:	60 91 0b 01 	lds	r22, 0x010B	; 0x80010b <motor_flipping>
     a42:	84 e6       	ldi	r24, 0x64	; 100
     a44:	0e 94 be 00 	call	0x17c	; 0x17c <setMotorPWM>
				MOTOR1_SETING(MOTOR_BREAK);
     a48:	5b 98       	cbi	0x0b, 3	; 11
     a4a:	5f 98       	cbi	0x0b, 7	; 11
				MOTOR1_ENABLE();
     a4c:	84 b5       	in	r24, 0x24	; 36
     a4e:	80 63       	ori	r24, 0x30	; 48
     a50:	84 bd       	out	0x24, r24	; 36
     a52:	52 c0       	rjmp	.+164    	; 0xaf8 <__vector_9+0x124>
			}
			else {
				MOTOR2_DISABLE();
     a54:	84 b5       	in	r24, 0x24	; 36
     a56:	8f 73       	andi	r24, 0x3F	; 63
     a58:	84 bd       	out	0x24, r24	; 36
				setMotorPWM(MOTOR_OPTIMUM_PWM_BREAK, motor_flipping);
     a5a:	60 91 0b 01 	lds	r22, 0x010B	; 0x80010b <motor_flipping>
     a5e:	84 e6       	ldi	r24, 0x64	; 100
     a60:	0e 94 be 00 	call	0x17c	; 0x17c <setMotorPWM>
				MOTOR2_SETING(MOTOR_BREAK);
     a64:	44 98       	cbi	0x08, 4	; 8
     a66:	45 98       	cbi	0x08, 5	; 8
				MOTOR2_ENABLE();
     a68:	84 b5       	in	r24, 0x24	; 36
     a6a:	80 6c       	ori	r24, 0xC0	; 192
     a6c:	84 bd       	out	0x24, r24	; 36
     a6e:	44 c0       	rjmp	.+136    	; 0xaf8 <__vector_9+0x124>
			}
			break;
		
		//We have stopped the pan at pancake destination time to go back
		case MOTOR_BREAK_FORWARD_TIME_S:
			if (motor_flipping == MOTOR1) {
     a70:	80 91 0b 01 	lds	r24, 0x010B	; 0x80010b <motor_flipping>
     a74:	81 11       	cpse	r24, r1
     a76:	14 c0       	rjmp	.+40     	; 0xaa0 <__vector_9+0xcc>
				MOTOR1_DISABLE();
     a78:	84 b5       	in	r24, 0x24	; 36
     a7a:	8f 7c       	andi	r24, 0xCF	; 207
     a7c:	84 bd       	out	0x24, r24	; 36
				setMotorPWM(MOTOR_OPTIMUM_PWM_BACKWARD, motor_flipping);
     a7e:	60 91 0b 01 	lds	r22, 0x010B	; 0x80010b <motor_flipping>
     a82:	82 e4       	ldi	r24, 0x42	; 66
     a84:	0e 94 be 00 	call	0x17c	; 0x17c <setMotorPWM>
				MOTOR1_SETING(MOTOR_BACKWARD);
     a88:	5b 98       	cbi	0x0b, 3	; 11
     a8a:	5f 9a       	sbi	0x0b, 7	; 11
				MOTOR1_ENABLE();
     a8c:	84 b5       	in	r24, 0x24	; 36
     a8e:	80 63       	ori	r24, 0x30	; 48
     a90:	84 bd       	out	0x24, r24	; 36
}

static void startTimePan2(){
	
	//Set internal flag
	pan2_cooking_time = 0;
     a92:	10 92 03 01 	sts	0x0103, r1	; 0x800103 <__data_end+0x1>
     a96:	10 92 02 01 	sts	0x0102, r1	; 0x800102 <__data_end>
	pan2Free = false;
     a9a:	10 92 00 01 	sts	0x0100, r1	; 0x800100 <__data_start>
     a9e:	2c c0       	rjmp	.+88     	; 0xaf8 <__vector_9+0x124>
				MOTOR1_SETING(MOTOR_BACKWARD);
				MOTOR1_ENABLE();
				startTimePan2();
			}
			else {
				MOTOR2_DISABLE();
     aa0:	84 b5       	in	r24, 0x24	; 36
     aa2:	8f 73       	andi	r24, 0x3F	; 63
     aa4:	84 bd       	out	0x24, r24	; 36
				setMotorPWM(MOTOR_OPTIMUM_PWM_BACKWARD, motor_flipping);
     aa6:	60 91 0b 01 	lds	r22, 0x010B	; 0x80010b <motor_flipping>
     aaa:	82 e4       	ldi	r24, 0x42	; 66
     aac:	0e 94 be 00 	call	0x17c	; 0x17c <setMotorPWM>
				MOTOR2_SETING(MOTOR_BACKWARD);
     ab0:	44 98       	cbi	0x08, 4	; 8
     ab2:	45 9a       	sbi	0x08, 5	; 8
				MOTOR2_ENABLE();
     ab4:	84 b5       	in	r24, 0x24	; 36
     ab6:	80 6c       	ori	r24, 0xC0	; 192
     ab8:	84 bd       	out	0x24, r24	; 36
     aba:	1e c0       	rjmp	.+60     	; 0xaf8 <__vector_9+0x124>
			}
			break;
		
		//We have reached the starting position set flags
		case MOTOR_BREAK_BACKWARD_TIME_S:
			if (motor_flipping == MOTOR1) {
     abc:	80 91 0b 01 	lds	r24, 0x010B	; 0x80010b <motor_flipping>
     ac0:	81 11       	cpse	r24, r1
     ac2:	09 c0       	rjmp	.+18     	; 0xad6 <__vector_9+0x102>
				MOTOR1_DISABLE();
     ac4:	84 b5       	in	r24, 0x24	; 36
     ac6:	8f 7c       	andi	r24, 0xCF	; 207
     ac8:	84 bd       	out	0x24, r24	; 36
				MOTOR1_SETING(MOTOR_OFF);
     aca:	5b 9a       	sbi	0x0b, 3	; 11
     acc:	5f 9a       	sbi	0x0b, 7	; 11
				pan1Free = true;
     ace:	81 e0       	ldi	r24, 0x01	; 1
     ad0:	80 93 01 01 	sts	0x0101, r24	; 0x800101 <pan1Free>
     ad4:	0a c0       	rjmp	.+20     	; 0xaea <__vector_9+0x116>
			}
			else {
				MOTOR2_DISABLE();
     ad6:	84 b5       	in	r24, 0x24	; 36
     ad8:	8f 73       	andi	r24, 0x3F	; 63
     ada:	84 bd       	out	0x24, r24	; 36
				MOTOR2_SETING(MOTOR_OFF);
     adc:	44 9a       	sbi	0x08, 4	; 8
     ade:	45 9a       	sbi	0x08, 5	; 8
				pancake_done = true;
     ae0:	81 e0       	ldi	r24, 0x01	; 1
     ae2:	80 93 06 01 	sts	0x0106, r24	; 0x800106 <pancake_done>
				pan2Free = true;
     ae6:	80 93 00 01 	sts	0x0100, r24	; 0x800100 <__data_start>
	TCCR2B |= (1 << CS22) | (1 << CS20);
}

static void stopTimer2(){
	//Stop clock
	TCCR2B &= ~((1 << CS22) | (1 << CS20));
     aea:	e1 eb       	ldi	r30, 0xB1	; 177
     aec:	f0 e0       	ldi	r31, 0x00	; 0
     aee:	80 81       	ld	r24, Z
     af0:	8a 7f       	andi	r24, 0xFA	; 250
     af2:	80 83       	st	Z, r24
	
	//Reset count
	TCNT2 = 0x00;
     af4:	10 92 b2 00 	sts	0x00B2, r1	; 0x8000b2 <__DATA_REGION_ORIGIN__+0x52>
			}
			//Stop the timer
			stopTimer2();
			break;
	}
}
     af8:	ff 91       	pop	r31
     afa:	ef 91       	pop	r30
     afc:	bf 91       	pop	r27
     afe:	af 91       	pop	r26
     b00:	9f 91       	pop	r25
     b02:	8f 91       	pop	r24
     b04:	7f 91       	pop	r23
     b06:	6f 91       	pop	r22
     b08:	5f 91       	pop	r21
     b0a:	4f 91       	pop	r20
     b0c:	3f 91       	pop	r19
     b0e:	2f 91       	pop	r18
     b10:	0f 90       	pop	r0
     b12:	0f be       	out	0x3f, r0	; 63
     b14:	0f 90       	pop	r0
     b16:	1f 90       	pop	r1
     b18:	18 95       	reti

00000b1a <init_1Hz_timer>:
	
}

void init_1Hz_timer(){
	//Setup timer
	PRR &= ~(1 << PRTIM1);	//Enable timer 1
     b1a:	e4 e6       	ldi	r30, 0x64	; 100
     b1c:	f0 e0       	ldi	r31, 0x00	; 0
     b1e:	80 81       	ld	r24, Z
     b20:	87 7f       	andi	r24, 0xF7	; 247
     b22:	80 83       	st	Z, r24
	
	 
	//Timer is in fast PWM mode, TOP is ICR1 and prescaler is 256
	TCCR1A = (1 << WGM11);
     b24:	82 e0       	ldi	r24, 0x02	; 2
     b26:	80 93 80 00 	sts	0x0080, r24	; 0x800080 <__DATA_REGION_ORIGIN__+0x20>
	TCCR1B = (1 << WGM13) | (1 << WGM12) | (1 << CS12);
     b2a:	8c e1       	ldi	r24, 0x1C	; 28
     b2c:	80 93 81 00 	sts	0x0081, r24	; 0x800081 <__DATA_REGION_ORIGIN__+0x21>
	
	//Set TOP value
	ICR1 = TIMER_1HZ_TOP;
     b30:	83 e2       	ldi	r24, 0x23	; 35
     b32:	94 ef       	ldi	r25, 0xF4	; 244
     b34:	90 93 87 00 	sts	0x0087, r25	; 0x800087 <__DATA_REGION_ORIGIN__+0x27>
     b38:	80 93 86 00 	sts	0x0086, r24	; 0x800086 <__DATA_REGION_ORIGIN__+0x26>
	
	//Overflow interrupt enabled
	TIMSK1 = (1 << TOIE1);
     b3c:	81 e0       	ldi	r24, 0x01	; 1
     b3e:	80 93 6f 00 	sts	0x006F, r24	; 0x80006f <__DATA_REGION_ORIGIN__+0xf>
     b42:	08 95       	ret

00000b44 <main>:
void init_1Hz_timer();

int main(void)
{
	//Enable interrupts
	sei();
     b44:	78 94       	sei
	init_1Hz_timer();
     b46:	0e 94 8d 05 	call	0xb1a	; 0xb1a <init_1Hz_timer>
	
	init_digital_comm();		//Initialize the digital communication
     b4a:	0e 94 fe 00 	call	0x1fc	; 0x1fc <init_digital_comm>
	I2C_SLAVE_init();			//Initialize the I2C communication
     b4e:	0e 94 b7 02 	call	0x56e	; 0x56e <I2C_SLAVE_init>
	init_regulation();			//Initialize the regulation
     b52:	0e 94 2e 01 	call	0x25c	; 0x25c <init_regulation>
	init_motors();				//Initialize the motor pins and PWMs
     b56:	0e 94 7c 04 	call	0x8f8	; 0x8f8 <init_motors>
	I2C_commands_t temp = 0xFF;
	
	bool check_for_free_pan = false;
	bool check_begin_cooking = false;
    /* Replace with your application code */
	DDRB |= 1<<DDB3;
     b5a:	23 9a       	sbi	0x04, 3	; 4
	PORTB &= ~(1<<PORTB3);
     b5c:	2b 98       	cbi	0x05, 3	; 5
	DDRB |= (1<<5);
     b5e:	25 9a       	sbi	0x04, 5	; 4
	PORTB &= ~(1<<5);
     b60:	2d 98       	cbi	0x05, 5	; 5
	init_motors();				//Initialize the motor pins and PWMs

	I2C_commands_t temp = 0xFF;
	
	bool check_for_free_pan = false;
	bool check_begin_cooking = false;
     b62:	d0 e0       	ldi	r29, 0x00	; 0
	init_regulation();			//Initialize the regulation
	init_motors();				//Initialize the motor pins and PWMs

	I2C_commands_t temp = 0xFF;
	
	bool check_for_free_pan = false;
     b64:	10 e0       	ldi	r17, 0x00	; 0
	init_digital_comm();		//Initialize the digital communication
	I2C_SLAVE_init();			//Initialize the I2C communication
	init_regulation();			//Initialize the regulation
	init_motors();				//Initialize the motor pins and PWMs

	I2C_commands_t temp = 0xFF;
     b66:	cf ef       	ldi	r28, 0xFF	; 255
			temp = I2C_SLAVE_getData();
		}
		
		if (check_for_free_pan && pan1Free && heat_ok){
			I2C_SLAVE_sendData(pan1Free);
			check_for_free_pan = false;
     b68:	00 e0       	ldi	r16, 0x00	; 0
				I2C_SLAVE_sendData(temp);
				temp = 0xFF;
				break;

			case GET_FIRST_PAN_STATUS:
				check_for_free_pan = true;
     b6a:	ee 24       	eor	r14, r14
     b6c:	e3 94       	inc	r14
				temp = 0xFF;
     b6e:	ff 24       	eor	r15, r15
     b70:	fa 94       	dec	r15
     b72:	01 c0       	rjmp	.+2      	; 0xb76 <main+0x32>
		{
			PORTB &= ~(1<<PORTB3);
		}
		
		
		switch (temp) {
     b74:	d0 2f       	mov	r29, r16
    {		
		/*if (check_begin_cooking)
		{
			PORTB |= 1<<PORTB3;
		}*/
		if (pan1_cooking_time == PANCAKE_COOKING_TIME1_S){
     b76:	80 91 04 01 	lds	r24, 0x0104	; 0x800104 <pan1_cooking_time>
     b7a:	90 91 05 01 	lds	r25, 0x0105	; 0x800105 <pan1_cooking_time+0x1>
     b7e:	49 97       	sbiw	r24, 0x19	; 25
     b80:	11 f4       	brne	.+4      	; 0xb86 <main+0x42>
			flipPan1();
     b82:	0e 94 bd 04 	call	0x97a	; 0x97a <flipPan1>
		}
		
		if (pan2_cooking_time == PANCAKE_COOKING_TIME2_S){
     b86:	80 91 02 01 	lds	r24, 0x0102	; 0x800102 <__data_end>
     b8a:	90 91 03 01 	lds	r25, 0x0103	; 0x800103 <__data_end+0x1>
     b8e:	0a 97       	sbiw	r24, 0x0a	; 10
     b90:	11 f4       	brne	.+4      	; 0xb96 <main+0x52>
			flipPan2();
     b92:	0e 94 d3 04 	call	0x9a6	; 0x9a6 <flipPan2>
		}
		
		if (I2C_SLAVE_checkData()){
     b96:	0e 94 28 02 	call	0x450	; 0x450 <I2C_SLAVE_checkData>
     b9a:	88 23       	and	r24, r24
     b9c:	19 f0       	breq	.+6      	; 0xba4 <main+0x60>
			temp = I2C_SLAVE_getData();
     b9e:	0e 94 96 02 	call	0x52c	; 0x52c <I2C_SLAVE_getData>
     ba2:	c8 2f       	mov	r28, r24
		}
		
		if (check_for_free_pan && pan1Free && heat_ok){
     ba4:	11 23       	and	r17, r17
     ba6:	71 f0       	breq	.+28     	; 0xbc4 <main+0x80>
     ba8:	80 91 01 01 	lds	r24, 0x0101	; 0x800101 <pan1Free>
     bac:	88 23       	and	r24, r24
     bae:	51 f0       	breq	.+20     	; 0xbc4 <main+0x80>
     bb0:	80 91 07 01 	lds	r24, 0x0107	; 0x800107 <heat_ok>
     bb4:	88 23       	and	r24, r24
     bb6:	31 f0       	breq	.+12     	; 0xbc4 <main+0x80>
			I2C_SLAVE_sendData(pan1Free);
     bb8:	80 91 01 01 	lds	r24, 0x0101	; 0x800101 <pan1Free>
     bbc:	0e 94 33 02 	call	0x466	; 0x466 <I2C_SLAVE_sendData>
			check_for_free_pan = false;
			PORTB |= 1<<PORTB3;			
     bc0:	2b 9a       	sbi	0x05, 3	; 5
			temp = I2C_SLAVE_getData();
		}
		
		if (check_for_free_pan && pan1Free && heat_ok){
			I2C_SLAVE_sendData(pan1Free);
			check_for_free_pan = false;
     bc2:	10 2f       	mov	r17, r16
			PORTB |= 1<<PORTB3;			
		}
		
		if (check_begin_cooking) {
     bc4:	d1 11       	cpse	r29, r1
			startTimePan1();
     bc6:	0e 94 b6 04 	call	0x96c	; 0x96c <startTimePan1>
			check_begin_cooking = false;
		}
		if (heat_ok_pan2)
     bca:	80 91 08 01 	lds	r24, 0x0108	; 0x800108 <heat_ok_pan2>
     bce:	88 23       	and	r24, r24
     bd0:	11 f0       	breq	.+4      	; 0xbd6 <main+0x92>
		{
			PORTB |= 1<<PORTB3;
     bd2:	2b 9a       	sbi	0x05, 3	; 5
     bd4:	01 c0       	rjmp	.+2      	; 0xbd8 <main+0x94>
		}
		else
		{
			PORTB &= ~(1<<PORTB3);
     bd6:	2b 98       	cbi	0x05, 3	; 5
		}
		
		
		switch (temp) {
     bd8:	c1 30       	cpi	r28, 0x01	; 1
     bda:	21 f0       	breq	.+8      	; 0xbe4 <main+0xa0>
     bdc:	38 f0       	brcs	.+14     	; 0xbec <main+0xa8>
     bde:	c2 30       	cpi	r28, 0x02	; 2
     be0:	59 f0       	breq	.+22     	; 0xbf8 <main+0xb4>
     be2:	c8 cf       	rjmp	.-112    	; 0xb74 <main+0x30>
     be4:	d0 2f       	mov	r29, r16
				I2C_SLAVE_sendData(temp);
				temp = 0xFF;
				break;

			case GET_FIRST_PAN_STATUS:
				check_for_free_pan = true;
     be6:	1e 2d       	mov	r17, r14
				temp = 0xFF;
     be8:	cf 2d       	mov	r28, r15
     bea:	c5 cf       	rjmp	.-118    	; 0xb76 <main+0x32>
		
		
		switch (temp) {
				
			case PING:
				I2C_SLAVE_sendData(temp);
     bec:	80 2f       	mov	r24, r16
     bee:	0e 94 33 02 	call	0x466	; 0x466 <I2C_SLAVE_sendData>
				temp = 0xFF;
				break;
     bf2:	d0 2f       	mov	r29, r16
		
		switch (temp) {
				
			case PING:
				I2C_SLAVE_sendData(temp);
				temp = 0xFF;
     bf4:	cf 2d       	mov	r28, r15
				break;
     bf6:	bf cf       	rjmp	.-130    	; 0xb76 <main+0x32>
				check_for_free_pan = true;
				temp = 0xFF;
				break;

			case BEGIN_COOKING:
				check_begin_cooking = true;
     bf8:	de 2d       	mov	r29, r14
				temp = 0xFF;
     bfa:	cf 2d       	mov	r28, r15
				break;
     bfc:	bc cf       	rjmp	.-136    	; 0xb76 <main+0x32>

00000bfe <__vector_13>:
	
	//Overflow interrupt enabled
	TIMSK1 = (1 << TOIE1);
}

ISR(TIMER1_OVF_vect){
     bfe:	1f 92       	push	r1
     c00:	0f 92       	push	r0
     c02:	0f b6       	in	r0, 0x3f	; 63
     c04:	0f 92       	push	r0
     c06:	11 24       	eor	r1, r1
     c08:	2f 93       	push	r18
     c0a:	3f 93       	push	r19
     c0c:	4f 93       	push	r20
     c0e:	5f 93       	push	r21
     c10:	6f 93       	push	r22
     c12:	7f 93       	push	r23
     c14:	8f 93       	push	r24
     c16:	9f 93       	push	r25
     c18:	af 93       	push	r26
     c1a:	bf 93       	push	r27
     c1c:	ef 93       	push	r30
     c1e:	ff 93       	push	r31
	
	//Control cooking time
	pan1_cooking_time += (pan1Free ? 0 : 1);
     c20:	90 91 01 01 	lds	r25, 0x0101	; 0x800101 <pan1Free>
     c24:	20 91 04 01 	lds	r18, 0x0104	; 0x800104 <pan1_cooking_time>
     c28:	30 91 05 01 	lds	r19, 0x0105	; 0x800105 <pan1_cooking_time+0x1>
     c2c:	81 e0       	ldi	r24, 0x01	; 1
     c2e:	98 27       	eor	r25, r24
     c30:	29 0f       	add	r18, r25
     c32:	31 1d       	adc	r19, r1
     c34:	30 93 05 01 	sts	0x0105, r19	; 0x800105 <pan1_cooking_time+0x1>
     c38:	20 93 04 01 	sts	0x0104, r18	; 0x800104 <pan1_cooking_time>
	pan2_cooking_time += (pan2Free ? 0 : 1);
     c3c:	90 91 00 01 	lds	r25, 0x0100	; 0x800100 <__data_start>
     c40:	20 91 02 01 	lds	r18, 0x0102	; 0x800102 <__data_end>
     c44:	30 91 03 01 	lds	r19, 0x0103	; 0x800103 <__data_end+0x1>
     c48:	89 27       	eor	r24, r25
     c4a:	a9 01       	movw	r20, r18
     c4c:	48 0f       	add	r20, r24
     c4e:	51 1d       	adc	r21, r1
     c50:	50 93 03 01 	sts	0x0103, r21	; 0x800103 <__data_end+0x1>
     c54:	40 93 02 01 	sts	0x0102, r20	; 0x800102 <__data_end>
	
	//Pancake Done
	pancakeDone();
     c58:	0e 94 0e 01 	call	0x21c	; 0x21c <pancakeDone>
	
}
     c5c:	ff 91       	pop	r31
     c5e:	ef 91       	pop	r30
     c60:	bf 91       	pop	r27
     c62:	af 91       	pop	r26
     c64:	9f 91       	pop	r25
     c66:	8f 91       	pop	r24
     c68:	7f 91       	pop	r23
     c6a:	6f 91       	pop	r22
     c6c:	5f 91       	pop	r21
     c6e:	4f 91       	pop	r20
     c70:	3f 91       	pop	r19
     c72:	2f 91       	pop	r18
     c74:	0f 90       	pop	r0
     c76:	0f be       	out	0x3f, r0	; 63
     c78:	0f 90       	pop	r0
     c7a:	1f 90       	pop	r1
     c7c:	18 95       	reti

00000c7e <__subsf3>:
     c7e:	50 58       	subi	r21, 0x80	; 128

00000c80 <__addsf3>:
     c80:	bb 27       	eor	r27, r27
     c82:	aa 27       	eor	r26, r26
     c84:	0e 94 57 06 	call	0xcae	; 0xcae <__addsf3x>
     c88:	0c 94 76 07 	jmp	0xeec	; 0xeec <__fp_round>
     c8c:	0e 94 68 07 	call	0xed0	; 0xed0 <__fp_pscA>
     c90:	38 f0       	brcs	.+14     	; 0xca0 <__addsf3+0x20>
     c92:	0e 94 6f 07 	call	0xede	; 0xede <__fp_pscB>
     c96:	20 f0       	brcs	.+8      	; 0xca0 <__addsf3+0x20>
     c98:	39 f4       	brne	.+14     	; 0xca8 <__addsf3+0x28>
     c9a:	9f 3f       	cpi	r25, 0xFF	; 255
     c9c:	19 f4       	brne	.+6      	; 0xca4 <__addsf3+0x24>
     c9e:	26 f4       	brtc	.+8      	; 0xca8 <__addsf3+0x28>
     ca0:	0c 94 65 07 	jmp	0xeca	; 0xeca <__fp_nan>
     ca4:	0e f4       	brtc	.+2      	; 0xca8 <__addsf3+0x28>
     ca6:	e0 95       	com	r30
     ca8:	e7 fb       	bst	r30, 7
     caa:	0c 94 36 07 	jmp	0xe6c	; 0xe6c <__fp_inf>

00000cae <__addsf3x>:
     cae:	e9 2f       	mov	r30, r25
     cb0:	0e 94 87 07 	call	0xf0e	; 0xf0e <__fp_split3>
     cb4:	58 f3       	brcs	.-42     	; 0xc8c <__addsf3+0xc>
     cb6:	ba 17       	cp	r27, r26
     cb8:	62 07       	cpc	r22, r18
     cba:	73 07       	cpc	r23, r19
     cbc:	84 07       	cpc	r24, r20
     cbe:	95 07       	cpc	r25, r21
     cc0:	20 f0       	brcs	.+8      	; 0xcca <__addsf3x+0x1c>
     cc2:	79 f4       	brne	.+30     	; 0xce2 <__addsf3x+0x34>
     cc4:	a6 f5       	brtc	.+104    	; 0xd2e <__addsf3x+0x80>
     cc6:	0c 94 c1 07 	jmp	0xf82	; 0xf82 <__fp_zero>
     cca:	0e f4       	brtc	.+2      	; 0xcce <__addsf3x+0x20>
     ccc:	e0 95       	com	r30
     cce:	0b 2e       	mov	r0, r27
     cd0:	ba 2f       	mov	r27, r26
     cd2:	a0 2d       	mov	r26, r0
     cd4:	0b 01       	movw	r0, r22
     cd6:	b9 01       	movw	r22, r18
     cd8:	90 01       	movw	r18, r0
     cda:	0c 01       	movw	r0, r24
     cdc:	ca 01       	movw	r24, r20
     cde:	a0 01       	movw	r20, r0
     ce0:	11 24       	eor	r1, r1
     ce2:	ff 27       	eor	r31, r31
     ce4:	59 1b       	sub	r21, r25
     ce6:	99 f0       	breq	.+38     	; 0xd0e <__addsf3x+0x60>
     ce8:	59 3f       	cpi	r21, 0xF9	; 249
     cea:	50 f4       	brcc	.+20     	; 0xd00 <__addsf3x+0x52>
     cec:	50 3e       	cpi	r21, 0xE0	; 224
     cee:	68 f1       	brcs	.+90     	; 0xd4a <__addsf3x+0x9c>
     cf0:	1a 16       	cp	r1, r26
     cf2:	f0 40       	sbci	r31, 0x00	; 0
     cf4:	a2 2f       	mov	r26, r18
     cf6:	23 2f       	mov	r18, r19
     cf8:	34 2f       	mov	r19, r20
     cfa:	44 27       	eor	r20, r20
     cfc:	58 5f       	subi	r21, 0xF8	; 248
     cfe:	f3 cf       	rjmp	.-26     	; 0xce6 <__addsf3x+0x38>
     d00:	46 95       	lsr	r20
     d02:	37 95       	ror	r19
     d04:	27 95       	ror	r18
     d06:	a7 95       	ror	r26
     d08:	f0 40       	sbci	r31, 0x00	; 0
     d0a:	53 95       	inc	r21
     d0c:	c9 f7       	brne	.-14     	; 0xd00 <__addsf3x+0x52>
     d0e:	7e f4       	brtc	.+30     	; 0xd2e <__addsf3x+0x80>
     d10:	1f 16       	cp	r1, r31
     d12:	ba 0b       	sbc	r27, r26
     d14:	62 0b       	sbc	r22, r18
     d16:	73 0b       	sbc	r23, r19
     d18:	84 0b       	sbc	r24, r20
     d1a:	ba f0       	brmi	.+46     	; 0xd4a <__addsf3x+0x9c>
     d1c:	91 50       	subi	r25, 0x01	; 1
     d1e:	a1 f0       	breq	.+40     	; 0xd48 <__addsf3x+0x9a>
     d20:	ff 0f       	add	r31, r31
     d22:	bb 1f       	adc	r27, r27
     d24:	66 1f       	adc	r22, r22
     d26:	77 1f       	adc	r23, r23
     d28:	88 1f       	adc	r24, r24
     d2a:	c2 f7       	brpl	.-16     	; 0xd1c <__addsf3x+0x6e>
     d2c:	0e c0       	rjmp	.+28     	; 0xd4a <__addsf3x+0x9c>
     d2e:	ba 0f       	add	r27, r26
     d30:	62 1f       	adc	r22, r18
     d32:	73 1f       	adc	r23, r19
     d34:	84 1f       	adc	r24, r20
     d36:	48 f4       	brcc	.+18     	; 0xd4a <__addsf3x+0x9c>
     d38:	87 95       	ror	r24
     d3a:	77 95       	ror	r23
     d3c:	67 95       	ror	r22
     d3e:	b7 95       	ror	r27
     d40:	f7 95       	ror	r31
     d42:	9e 3f       	cpi	r25, 0xFE	; 254
     d44:	08 f0       	brcs	.+2      	; 0xd48 <__addsf3x+0x9a>
     d46:	b0 cf       	rjmp	.-160    	; 0xca8 <__addsf3+0x28>
     d48:	93 95       	inc	r25
     d4a:	88 0f       	add	r24, r24
     d4c:	08 f0       	brcs	.+2      	; 0xd50 <__addsf3x+0xa2>
     d4e:	99 27       	eor	r25, r25
     d50:	ee 0f       	add	r30, r30
     d52:	97 95       	ror	r25
     d54:	87 95       	ror	r24
     d56:	08 95       	ret

00000d58 <ceil>:
     d58:	0e 94 a9 07 	call	0xf52	; 0xf52 <__fp_trunc>
     d5c:	90 f0       	brcs	.+36     	; 0xd82 <ceil+0x2a>
     d5e:	9f 37       	cpi	r25, 0x7F	; 127
     d60:	48 f4       	brcc	.+18     	; 0xd74 <ceil+0x1c>
     d62:	91 11       	cpse	r25, r1
     d64:	16 f4       	brtc	.+4      	; 0xd6a <ceil+0x12>
     d66:	0c 94 c2 07 	jmp	0xf84	; 0xf84 <__fp_szero>
     d6a:	60 e0       	ldi	r22, 0x00	; 0
     d6c:	70 e0       	ldi	r23, 0x00	; 0
     d6e:	80 e8       	ldi	r24, 0x80	; 128
     d70:	9f e3       	ldi	r25, 0x3F	; 63
     d72:	08 95       	ret
     d74:	26 f0       	brts	.+8      	; 0xd7e <ceil+0x26>
     d76:	1b 16       	cp	r1, r27
     d78:	61 1d       	adc	r22, r1
     d7a:	71 1d       	adc	r23, r1
     d7c:	81 1d       	adc	r24, r1
     d7e:	0c 94 3c 07 	jmp	0xe78	; 0xe78 <__fp_mintl>
     d82:	0c 94 57 07 	jmp	0xeae	; 0xeae <__fp_mpack>

00000d86 <__fixsfsi>:
     d86:	0e 94 ca 06 	call	0xd94	; 0xd94 <__fixunssfsi>
     d8a:	68 94       	set
     d8c:	b1 11       	cpse	r27, r1
     d8e:	0c 94 c2 07 	jmp	0xf84	; 0xf84 <__fp_szero>
     d92:	08 95       	ret

00000d94 <__fixunssfsi>:
     d94:	0e 94 8f 07 	call	0xf1e	; 0xf1e <__fp_splitA>
     d98:	88 f0       	brcs	.+34     	; 0xdbc <__fixunssfsi+0x28>
     d9a:	9f 57       	subi	r25, 0x7F	; 127
     d9c:	98 f0       	brcs	.+38     	; 0xdc4 <__fixunssfsi+0x30>
     d9e:	b9 2f       	mov	r27, r25
     da0:	99 27       	eor	r25, r25
     da2:	b7 51       	subi	r27, 0x17	; 23
     da4:	b0 f0       	brcs	.+44     	; 0xdd2 <__fixunssfsi+0x3e>
     da6:	e1 f0       	breq	.+56     	; 0xde0 <__fixunssfsi+0x4c>
     da8:	66 0f       	add	r22, r22
     daa:	77 1f       	adc	r23, r23
     dac:	88 1f       	adc	r24, r24
     dae:	99 1f       	adc	r25, r25
     db0:	1a f0       	brmi	.+6      	; 0xdb8 <__fixunssfsi+0x24>
     db2:	ba 95       	dec	r27
     db4:	c9 f7       	brne	.-14     	; 0xda8 <__fixunssfsi+0x14>
     db6:	14 c0       	rjmp	.+40     	; 0xde0 <__fixunssfsi+0x4c>
     db8:	b1 30       	cpi	r27, 0x01	; 1
     dba:	91 f0       	breq	.+36     	; 0xde0 <__fixunssfsi+0x4c>
     dbc:	0e 94 c1 07 	call	0xf82	; 0xf82 <__fp_zero>
     dc0:	b1 e0       	ldi	r27, 0x01	; 1
     dc2:	08 95       	ret
     dc4:	0c 94 c1 07 	jmp	0xf82	; 0xf82 <__fp_zero>
     dc8:	67 2f       	mov	r22, r23
     dca:	78 2f       	mov	r23, r24
     dcc:	88 27       	eor	r24, r24
     dce:	b8 5f       	subi	r27, 0xF8	; 248
     dd0:	39 f0       	breq	.+14     	; 0xde0 <__fixunssfsi+0x4c>
     dd2:	b9 3f       	cpi	r27, 0xF9	; 249
     dd4:	cc f3       	brlt	.-14     	; 0xdc8 <__fixunssfsi+0x34>
     dd6:	86 95       	lsr	r24
     dd8:	77 95       	ror	r23
     dda:	67 95       	ror	r22
     ddc:	b3 95       	inc	r27
     dde:	d9 f7       	brne	.-10     	; 0xdd6 <__fixunssfsi+0x42>
     de0:	3e f4       	brtc	.+14     	; 0xdf0 <__fixunssfsi+0x5c>
     de2:	90 95       	com	r25
     de4:	80 95       	com	r24
     de6:	70 95       	com	r23
     de8:	61 95       	neg	r22
     dea:	7f 4f       	sbci	r23, 0xFF	; 255
     dec:	8f 4f       	sbci	r24, 0xFF	; 255
     dee:	9f 4f       	sbci	r25, 0xFF	; 255
     df0:	08 95       	ret

00000df2 <__floatunsisf>:
     df2:	e8 94       	clt
     df4:	09 c0       	rjmp	.+18     	; 0xe08 <__floatsisf+0x12>

00000df6 <__floatsisf>:
     df6:	97 fb       	bst	r25, 7
     df8:	3e f4       	brtc	.+14     	; 0xe08 <__floatsisf+0x12>
     dfa:	90 95       	com	r25
     dfc:	80 95       	com	r24
     dfe:	70 95       	com	r23
     e00:	61 95       	neg	r22
     e02:	7f 4f       	sbci	r23, 0xFF	; 255
     e04:	8f 4f       	sbci	r24, 0xFF	; 255
     e06:	9f 4f       	sbci	r25, 0xFF	; 255
     e08:	99 23       	and	r25, r25
     e0a:	a9 f0       	breq	.+42     	; 0xe36 <__floatsisf+0x40>
     e0c:	f9 2f       	mov	r31, r25
     e0e:	96 e9       	ldi	r25, 0x96	; 150
     e10:	bb 27       	eor	r27, r27
     e12:	93 95       	inc	r25
     e14:	f6 95       	lsr	r31
     e16:	87 95       	ror	r24
     e18:	77 95       	ror	r23
     e1a:	67 95       	ror	r22
     e1c:	b7 95       	ror	r27
     e1e:	f1 11       	cpse	r31, r1
     e20:	f8 cf       	rjmp	.-16     	; 0xe12 <__floatsisf+0x1c>
     e22:	fa f4       	brpl	.+62     	; 0xe62 <__floatsisf+0x6c>
     e24:	bb 0f       	add	r27, r27
     e26:	11 f4       	brne	.+4      	; 0xe2c <__floatsisf+0x36>
     e28:	60 ff       	sbrs	r22, 0
     e2a:	1b c0       	rjmp	.+54     	; 0xe62 <__floatsisf+0x6c>
     e2c:	6f 5f       	subi	r22, 0xFF	; 255
     e2e:	7f 4f       	sbci	r23, 0xFF	; 255
     e30:	8f 4f       	sbci	r24, 0xFF	; 255
     e32:	9f 4f       	sbci	r25, 0xFF	; 255
     e34:	16 c0       	rjmp	.+44     	; 0xe62 <__floatsisf+0x6c>
     e36:	88 23       	and	r24, r24
     e38:	11 f0       	breq	.+4      	; 0xe3e <__floatsisf+0x48>
     e3a:	96 e9       	ldi	r25, 0x96	; 150
     e3c:	11 c0       	rjmp	.+34     	; 0xe60 <__floatsisf+0x6a>
     e3e:	77 23       	and	r23, r23
     e40:	21 f0       	breq	.+8      	; 0xe4a <__floatsisf+0x54>
     e42:	9e e8       	ldi	r25, 0x8E	; 142
     e44:	87 2f       	mov	r24, r23
     e46:	76 2f       	mov	r23, r22
     e48:	05 c0       	rjmp	.+10     	; 0xe54 <__floatsisf+0x5e>
     e4a:	66 23       	and	r22, r22
     e4c:	71 f0       	breq	.+28     	; 0xe6a <__floatsisf+0x74>
     e4e:	96 e8       	ldi	r25, 0x86	; 134
     e50:	86 2f       	mov	r24, r22
     e52:	70 e0       	ldi	r23, 0x00	; 0
     e54:	60 e0       	ldi	r22, 0x00	; 0
     e56:	2a f0       	brmi	.+10     	; 0xe62 <__floatsisf+0x6c>
     e58:	9a 95       	dec	r25
     e5a:	66 0f       	add	r22, r22
     e5c:	77 1f       	adc	r23, r23
     e5e:	88 1f       	adc	r24, r24
     e60:	da f7       	brpl	.-10     	; 0xe58 <__floatsisf+0x62>
     e62:	88 0f       	add	r24, r24
     e64:	96 95       	lsr	r25
     e66:	87 95       	ror	r24
     e68:	97 f9       	bld	r25, 7
     e6a:	08 95       	ret

00000e6c <__fp_inf>:
     e6c:	97 f9       	bld	r25, 7
     e6e:	9f 67       	ori	r25, 0x7F	; 127
     e70:	80 e8       	ldi	r24, 0x80	; 128
     e72:	70 e0       	ldi	r23, 0x00	; 0
     e74:	60 e0       	ldi	r22, 0x00	; 0
     e76:	08 95       	ret

00000e78 <__fp_mintl>:
     e78:	88 23       	and	r24, r24
     e7a:	71 f4       	brne	.+28     	; 0xe98 <__fp_mintl+0x20>
     e7c:	77 23       	and	r23, r23
     e7e:	21 f0       	breq	.+8      	; 0xe88 <__fp_mintl+0x10>
     e80:	98 50       	subi	r25, 0x08	; 8
     e82:	87 2b       	or	r24, r23
     e84:	76 2f       	mov	r23, r22
     e86:	07 c0       	rjmp	.+14     	; 0xe96 <__fp_mintl+0x1e>
     e88:	66 23       	and	r22, r22
     e8a:	11 f4       	brne	.+4      	; 0xe90 <__fp_mintl+0x18>
     e8c:	99 27       	eor	r25, r25
     e8e:	0d c0       	rjmp	.+26     	; 0xeaa <__fp_mintl+0x32>
     e90:	90 51       	subi	r25, 0x10	; 16
     e92:	86 2b       	or	r24, r22
     e94:	70 e0       	ldi	r23, 0x00	; 0
     e96:	60 e0       	ldi	r22, 0x00	; 0
     e98:	2a f0       	brmi	.+10     	; 0xea4 <__fp_mintl+0x2c>
     e9a:	9a 95       	dec	r25
     e9c:	66 0f       	add	r22, r22
     e9e:	77 1f       	adc	r23, r23
     ea0:	88 1f       	adc	r24, r24
     ea2:	da f7       	brpl	.-10     	; 0xe9a <__fp_mintl+0x22>
     ea4:	88 0f       	add	r24, r24
     ea6:	96 95       	lsr	r25
     ea8:	87 95       	ror	r24
     eaa:	97 f9       	bld	r25, 7
     eac:	08 95       	ret

00000eae <__fp_mpack>:
     eae:	9f 3f       	cpi	r25, 0xFF	; 255
     eb0:	31 f0       	breq	.+12     	; 0xebe <__fp_mpack_finite+0xc>

00000eb2 <__fp_mpack_finite>:
     eb2:	91 50       	subi	r25, 0x01	; 1
     eb4:	20 f4       	brcc	.+8      	; 0xebe <__fp_mpack_finite+0xc>
     eb6:	87 95       	ror	r24
     eb8:	77 95       	ror	r23
     eba:	67 95       	ror	r22
     ebc:	b7 95       	ror	r27
     ebe:	88 0f       	add	r24, r24
     ec0:	91 1d       	adc	r25, r1
     ec2:	96 95       	lsr	r25
     ec4:	87 95       	ror	r24
     ec6:	97 f9       	bld	r25, 7
     ec8:	08 95       	ret

00000eca <__fp_nan>:
     eca:	9f ef       	ldi	r25, 0xFF	; 255
     ecc:	80 ec       	ldi	r24, 0xC0	; 192
     ece:	08 95       	ret

00000ed0 <__fp_pscA>:
     ed0:	00 24       	eor	r0, r0
     ed2:	0a 94       	dec	r0
     ed4:	16 16       	cp	r1, r22
     ed6:	17 06       	cpc	r1, r23
     ed8:	18 06       	cpc	r1, r24
     eda:	09 06       	cpc	r0, r25
     edc:	08 95       	ret

00000ede <__fp_pscB>:
     ede:	00 24       	eor	r0, r0
     ee0:	0a 94       	dec	r0
     ee2:	12 16       	cp	r1, r18
     ee4:	13 06       	cpc	r1, r19
     ee6:	14 06       	cpc	r1, r20
     ee8:	05 06       	cpc	r0, r21
     eea:	08 95       	ret

00000eec <__fp_round>:
     eec:	09 2e       	mov	r0, r25
     eee:	03 94       	inc	r0
     ef0:	00 0c       	add	r0, r0
     ef2:	11 f4       	brne	.+4      	; 0xef8 <__fp_round+0xc>
     ef4:	88 23       	and	r24, r24
     ef6:	52 f0       	brmi	.+20     	; 0xf0c <__fp_round+0x20>
     ef8:	bb 0f       	add	r27, r27
     efa:	40 f4       	brcc	.+16     	; 0xf0c <__fp_round+0x20>
     efc:	bf 2b       	or	r27, r31
     efe:	11 f4       	brne	.+4      	; 0xf04 <__fp_round+0x18>
     f00:	60 ff       	sbrs	r22, 0
     f02:	04 c0       	rjmp	.+8      	; 0xf0c <__fp_round+0x20>
     f04:	6f 5f       	subi	r22, 0xFF	; 255
     f06:	7f 4f       	sbci	r23, 0xFF	; 255
     f08:	8f 4f       	sbci	r24, 0xFF	; 255
     f0a:	9f 4f       	sbci	r25, 0xFF	; 255
     f0c:	08 95       	ret

00000f0e <__fp_split3>:
     f0e:	57 fd       	sbrc	r21, 7
     f10:	90 58       	subi	r25, 0x80	; 128
     f12:	44 0f       	add	r20, r20
     f14:	55 1f       	adc	r21, r21
     f16:	59 f0       	breq	.+22     	; 0xf2e <__fp_splitA+0x10>
     f18:	5f 3f       	cpi	r21, 0xFF	; 255
     f1a:	71 f0       	breq	.+28     	; 0xf38 <__fp_splitA+0x1a>
     f1c:	47 95       	ror	r20

00000f1e <__fp_splitA>:
     f1e:	88 0f       	add	r24, r24
     f20:	97 fb       	bst	r25, 7
     f22:	99 1f       	adc	r25, r25
     f24:	61 f0       	breq	.+24     	; 0xf3e <__fp_splitA+0x20>
     f26:	9f 3f       	cpi	r25, 0xFF	; 255
     f28:	79 f0       	breq	.+30     	; 0xf48 <__fp_splitA+0x2a>
     f2a:	87 95       	ror	r24
     f2c:	08 95       	ret
     f2e:	12 16       	cp	r1, r18
     f30:	13 06       	cpc	r1, r19
     f32:	14 06       	cpc	r1, r20
     f34:	55 1f       	adc	r21, r21
     f36:	f2 cf       	rjmp	.-28     	; 0xf1c <__fp_split3+0xe>
     f38:	46 95       	lsr	r20
     f3a:	f1 df       	rcall	.-30     	; 0xf1e <__fp_splitA>
     f3c:	08 c0       	rjmp	.+16     	; 0xf4e <__fp_splitA+0x30>
     f3e:	16 16       	cp	r1, r22
     f40:	17 06       	cpc	r1, r23
     f42:	18 06       	cpc	r1, r24
     f44:	99 1f       	adc	r25, r25
     f46:	f1 cf       	rjmp	.-30     	; 0xf2a <__fp_splitA+0xc>
     f48:	86 95       	lsr	r24
     f4a:	71 05       	cpc	r23, r1
     f4c:	61 05       	cpc	r22, r1
     f4e:	08 94       	sec
     f50:	08 95       	ret

00000f52 <__fp_trunc>:
     f52:	0e 94 8f 07 	call	0xf1e	; 0xf1e <__fp_splitA>
     f56:	a0 f0       	brcs	.+40     	; 0xf80 <__fp_trunc+0x2e>
     f58:	be e7       	ldi	r27, 0x7E	; 126
     f5a:	b9 17       	cp	r27, r25
     f5c:	88 f4       	brcc	.+34     	; 0xf80 <__fp_trunc+0x2e>
     f5e:	bb 27       	eor	r27, r27
     f60:	9f 38       	cpi	r25, 0x8F	; 143
     f62:	60 f4       	brcc	.+24     	; 0xf7c <__fp_trunc+0x2a>
     f64:	16 16       	cp	r1, r22
     f66:	b1 1d       	adc	r27, r1
     f68:	67 2f       	mov	r22, r23
     f6a:	78 2f       	mov	r23, r24
     f6c:	88 27       	eor	r24, r24
     f6e:	98 5f       	subi	r25, 0xF8	; 248
     f70:	f7 cf       	rjmp	.-18     	; 0xf60 <__fp_trunc+0xe>
     f72:	86 95       	lsr	r24
     f74:	77 95       	ror	r23
     f76:	67 95       	ror	r22
     f78:	b1 1d       	adc	r27, r1
     f7a:	93 95       	inc	r25
     f7c:	96 39       	cpi	r25, 0x96	; 150
     f7e:	c8 f3       	brcs	.-14     	; 0xf72 <__fp_trunc+0x20>
     f80:	08 95       	ret

00000f82 <__fp_zero>:
     f82:	e8 94       	clt

00000f84 <__fp_szero>:
     f84:	bb 27       	eor	r27, r27
     f86:	66 27       	eor	r22, r22
     f88:	77 27       	eor	r23, r23
     f8a:	cb 01       	movw	r24, r22
     f8c:	97 f9       	bld	r25, 7
     f8e:	08 95       	ret

00000f90 <__mulsf3>:
     f90:	0e 94 db 07 	call	0xfb6	; 0xfb6 <__mulsf3x>
     f94:	0c 94 76 07 	jmp	0xeec	; 0xeec <__fp_round>
     f98:	0e 94 68 07 	call	0xed0	; 0xed0 <__fp_pscA>
     f9c:	38 f0       	brcs	.+14     	; 0xfac <__mulsf3+0x1c>
     f9e:	0e 94 6f 07 	call	0xede	; 0xede <__fp_pscB>
     fa2:	20 f0       	brcs	.+8      	; 0xfac <__mulsf3+0x1c>
     fa4:	95 23       	and	r25, r21
     fa6:	11 f0       	breq	.+4      	; 0xfac <__mulsf3+0x1c>
     fa8:	0c 94 36 07 	jmp	0xe6c	; 0xe6c <__fp_inf>
     fac:	0c 94 65 07 	jmp	0xeca	; 0xeca <__fp_nan>
     fb0:	11 24       	eor	r1, r1
     fb2:	0c 94 c2 07 	jmp	0xf84	; 0xf84 <__fp_szero>

00000fb6 <__mulsf3x>:
     fb6:	0e 94 87 07 	call	0xf0e	; 0xf0e <__fp_split3>
     fba:	70 f3       	brcs	.-36     	; 0xf98 <__mulsf3+0x8>

00000fbc <__mulsf3_pse>:
     fbc:	95 9f       	mul	r25, r21
     fbe:	c1 f3       	breq	.-16     	; 0xfb0 <__mulsf3+0x20>
     fc0:	95 0f       	add	r25, r21
     fc2:	50 e0       	ldi	r21, 0x00	; 0
     fc4:	55 1f       	adc	r21, r21
     fc6:	62 9f       	mul	r22, r18
     fc8:	f0 01       	movw	r30, r0
     fca:	72 9f       	mul	r23, r18
     fcc:	bb 27       	eor	r27, r27
     fce:	f0 0d       	add	r31, r0
     fd0:	b1 1d       	adc	r27, r1
     fd2:	63 9f       	mul	r22, r19
     fd4:	aa 27       	eor	r26, r26
     fd6:	f0 0d       	add	r31, r0
     fd8:	b1 1d       	adc	r27, r1
     fda:	aa 1f       	adc	r26, r26
     fdc:	64 9f       	mul	r22, r20
     fde:	66 27       	eor	r22, r22
     fe0:	b0 0d       	add	r27, r0
     fe2:	a1 1d       	adc	r26, r1
     fe4:	66 1f       	adc	r22, r22
     fe6:	82 9f       	mul	r24, r18
     fe8:	22 27       	eor	r18, r18
     fea:	b0 0d       	add	r27, r0
     fec:	a1 1d       	adc	r26, r1
     fee:	62 1f       	adc	r22, r18
     ff0:	73 9f       	mul	r23, r19
     ff2:	b0 0d       	add	r27, r0
     ff4:	a1 1d       	adc	r26, r1
     ff6:	62 1f       	adc	r22, r18
     ff8:	83 9f       	mul	r24, r19
     ffa:	a0 0d       	add	r26, r0
     ffc:	61 1d       	adc	r22, r1
     ffe:	22 1f       	adc	r18, r18
    1000:	74 9f       	mul	r23, r20
    1002:	33 27       	eor	r19, r19
    1004:	a0 0d       	add	r26, r0
    1006:	61 1d       	adc	r22, r1
    1008:	23 1f       	adc	r18, r19
    100a:	84 9f       	mul	r24, r20
    100c:	60 0d       	add	r22, r0
    100e:	21 1d       	adc	r18, r1
    1010:	82 2f       	mov	r24, r18
    1012:	76 2f       	mov	r23, r22
    1014:	6a 2f       	mov	r22, r26
    1016:	11 24       	eor	r1, r1
    1018:	9f 57       	subi	r25, 0x7F	; 127
    101a:	50 40       	sbci	r21, 0x00	; 0
    101c:	9a f0       	brmi	.+38     	; 0x1044 <__mulsf3_pse+0x88>
    101e:	f1 f0       	breq	.+60     	; 0x105c <__mulsf3_pse+0xa0>
    1020:	88 23       	and	r24, r24
    1022:	4a f0       	brmi	.+18     	; 0x1036 <__mulsf3_pse+0x7a>
    1024:	ee 0f       	add	r30, r30
    1026:	ff 1f       	adc	r31, r31
    1028:	bb 1f       	adc	r27, r27
    102a:	66 1f       	adc	r22, r22
    102c:	77 1f       	adc	r23, r23
    102e:	88 1f       	adc	r24, r24
    1030:	91 50       	subi	r25, 0x01	; 1
    1032:	50 40       	sbci	r21, 0x00	; 0
    1034:	a9 f7       	brne	.-22     	; 0x1020 <__mulsf3_pse+0x64>
    1036:	9e 3f       	cpi	r25, 0xFE	; 254
    1038:	51 05       	cpc	r21, r1
    103a:	80 f0       	brcs	.+32     	; 0x105c <__mulsf3_pse+0xa0>
    103c:	0c 94 36 07 	jmp	0xe6c	; 0xe6c <__fp_inf>
    1040:	0c 94 c2 07 	jmp	0xf84	; 0xf84 <__fp_szero>
    1044:	5f 3f       	cpi	r21, 0xFF	; 255
    1046:	e4 f3       	brlt	.-8      	; 0x1040 <__mulsf3_pse+0x84>
    1048:	98 3e       	cpi	r25, 0xE8	; 232
    104a:	d4 f3       	brlt	.-12     	; 0x1040 <__mulsf3_pse+0x84>
    104c:	86 95       	lsr	r24
    104e:	77 95       	ror	r23
    1050:	67 95       	ror	r22
    1052:	b7 95       	ror	r27
    1054:	f7 95       	ror	r31
    1056:	e7 95       	ror	r30
    1058:	9f 5f       	subi	r25, 0xFF	; 255
    105a:	c1 f7       	brne	.-16     	; 0x104c <__mulsf3_pse+0x90>
    105c:	fe 2b       	or	r31, r30
    105e:	88 0f       	add	r24, r24
    1060:	91 1d       	adc	r25, r1
    1062:	96 95       	lsr	r25
    1064:	87 95       	ror	r24
    1066:	97 f9       	bld	r25, 7
    1068:	08 95       	ret

0000106a <__muluhisi3>:
    106a:	0e 94 40 08 	call	0x1080	; 0x1080 <__umulhisi3>
    106e:	a5 9f       	mul	r26, r21
    1070:	90 0d       	add	r25, r0
    1072:	b4 9f       	mul	r27, r20
    1074:	90 0d       	add	r25, r0
    1076:	a4 9f       	mul	r26, r20
    1078:	80 0d       	add	r24, r0
    107a:	91 1d       	adc	r25, r1
    107c:	11 24       	eor	r1, r1
    107e:	08 95       	ret

00001080 <__umulhisi3>:
    1080:	a2 9f       	mul	r26, r18
    1082:	b0 01       	movw	r22, r0
    1084:	b3 9f       	mul	r27, r19
    1086:	c0 01       	movw	r24, r0
    1088:	a3 9f       	mul	r26, r19
    108a:	70 0d       	add	r23, r0
    108c:	81 1d       	adc	r24, r1
    108e:	11 24       	eor	r1, r1
    1090:	91 1d       	adc	r25, r1
    1092:	b2 9f       	mul	r27, r18
    1094:	70 0d       	add	r23, r0
    1096:	81 1d       	adc	r24, r1
    1098:	11 24       	eor	r1, r1
    109a:	91 1d       	adc	r25, r1
    109c:	08 95       	ret

0000109e <_exit>:
    109e:	f8 94       	cli

000010a0 <__stop_program>:
    10a0:	ff cf       	rjmp	.-2      	; 0x10a0 <__stop_program>
