
ProtocolTest.elf:     file format elf32-avr

Sections:
Idx Name          Size      VMA       LMA       File off  Algn
  0 .data         00000000  00800100  00800100  00000754  2**0
                  CONTENTS, ALLOC, LOAD, DATA
  1 .text         000006e0  00000000  00000000  00000074  2**1
                  CONTENTS, ALLOC, LOAD, READONLY, CODE
  2 .bss          00000012  00800100  00800100  00000754  2**0
                  ALLOC
  3 .comment      00000030  00000000  00000000  00000754  2**0
                  CONTENTS, READONLY
  4 .note.gnu.avr.deviceinfo 00000040  00000000  00000000  00000784  2**2
                  CONTENTS, READONLY
  5 .debug_aranges 00000110  00000000  00000000  000007c4  2**0
                  CONTENTS, READONLY, DEBUGGING
  6 .debug_info   00001038  00000000  00000000  000008d4  2**0
                  CONTENTS, READONLY, DEBUGGING
  7 .debug_abbrev 00000a39  00000000  00000000  0000190c  2**0
                  CONTENTS, READONLY, DEBUGGING
  8 .debug_line   00000a2d  00000000  00000000  00002345  2**0
                  CONTENTS, READONLY, DEBUGGING
  9 .debug_frame  00000280  00000000  00000000  00002d74  2**2
                  CONTENTS, READONLY, DEBUGGING
 10 .debug_str    000007db  00000000  00000000  00002ff4  2**0
                  CONTENTS, READONLY, DEBUGGING
 11 .debug_loc    00000505  00000000  00000000  000037cf  2**0
                  CONTENTS, READONLY, DEBUGGING
 12 .debug_ranges 000000e0  00000000  00000000  00003cd4  2**0
                  CONTENTS, READONLY, DEBUGGING

Disassembly of section .text:

00000000 <__vectors>:
   0:	0c 94 34 00 	jmp	0x68	; 0x68 <__ctors_end>
   4:	0c 94 63 01 	jmp	0x2c6	; 0x2c6 <__vector_1>
   8:	0c 94 46 00 	jmp	0x8c	; 0x8c <__bad_interrupt>
   c:	0c 94 46 00 	jmp	0x8c	; 0x8c <__bad_interrupt>
  10:	0c 94 46 00 	jmp	0x8c	; 0x8c <__bad_interrupt>
  14:	0c 94 86 02 	jmp	0x50c	; 0x50c <__vector_5>
  18:	0c 94 46 00 	jmp	0x8c	; 0x8c <__bad_interrupt>
  1c:	0c 94 46 00 	jmp	0x8c	; 0x8c <__bad_interrupt>
  20:	0c 94 46 00 	jmp	0x8c	; 0x8c <__bad_interrupt>
  24:	0c 94 46 00 	jmp	0x8c	; 0x8c <__bad_interrupt>
  28:	0c 94 46 00 	jmp	0x8c	; 0x8c <__bad_interrupt>
  2c:	0c 94 46 00 	jmp	0x8c	; 0x8c <__bad_interrupt>
  30:	0c 94 46 00 	jmp	0x8c	; 0x8c <__bad_interrupt>
  34:	0c 94 46 00 	jmp	0x8c	; 0x8c <__bad_interrupt>
  38:	0c 94 46 00 	jmp	0x8c	; 0x8c <__bad_interrupt>
  3c:	0c 94 46 00 	jmp	0x8c	; 0x8c <__bad_interrupt>
  40:	0c 94 46 00 	jmp	0x8c	; 0x8c <__bad_interrupt>
  44:	0c 94 46 00 	jmp	0x8c	; 0x8c <__bad_interrupt>
  48:	0c 94 46 00 	jmp	0x8c	; 0x8c <__bad_interrupt>
  4c:	0c 94 46 00 	jmp	0x8c	; 0x8c <__bad_interrupt>
  50:	0c 94 46 00 	jmp	0x8c	; 0x8c <__bad_interrupt>
  54:	0c 94 46 00 	jmp	0x8c	; 0x8c <__bad_interrupt>
  58:	0c 94 46 00 	jmp	0x8c	; 0x8c <__bad_interrupt>
  5c:	0c 94 46 00 	jmp	0x8c	; 0x8c <__bad_interrupt>
  60:	0c 94 8c 00 	jmp	0x118	; 0x118 <__vector_24>
  64:	0c 94 46 00 	jmp	0x8c	; 0x8c <__bad_interrupt>

00000068 <__ctors_end>:
  68:	11 24       	eor	r1, r1
  6a:	1f be       	out	0x3f, r1	; 63
  6c:	cf ef       	ldi	r28, 0xFF	; 255
  6e:	d8 e0       	ldi	r29, 0x08	; 8
  70:	de bf       	out	0x3e, r29	; 62
  72:	cd bf       	out	0x3d, r28	; 61

00000074 <__do_clear_bss>:
  74:	21 e0       	ldi	r18, 0x01	; 1
  76:	a0 e0       	ldi	r26, 0x00	; 0
  78:	b1 e0       	ldi	r27, 0x01	; 1
  7a:	01 c0       	rjmp	.+2      	; 0x7e <.do_clear_bss_start>

0000007c <.do_clear_bss_loop>:
  7c:	1d 92       	st	X+, r1

0000007e <.do_clear_bss_start>:
  7e:	a2 31       	cpi	r26, 0x12	; 18
  80:	b2 07       	cpc	r27, r18
  82:	e1 f7       	brne	.-8      	; 0x7c <.do_clear_bss_loop>
  84:	0e 94 af 02 	call	0x55e	; 0x55e <main>
  88:	0c 94 6e 03 	jmp	0x6dc	; 0x6dc <_exit>

0000008c <__bad_interrupt>:
  8c:	0c 94 00 00 	jmp	0	; 0x0 <__vectors>

00000090 <I2C_MASTER_init>:
	
	
I2C_write_fail:
	I2C_MASTER_hw_mutex = false;
	return 	I2C_SEND_FAIL;
}
  90:	80 93 b8 00 	sts	0x00B8, r24	; 0x8000b8 <__DATA_REGION_ORIGIN__+0x58>
  94:	60 93 b9 00 	sts	0x00B9, r22	; 0x8000b9 <__DATA_REGION_ORIGIN__+0x59>
  98:	84 e0       	ldi	r24, 0x04	; 4
  9a:	80 93 bc 00 	sts	0x00BC, r24	; 0x8000bc <__DATA_REGION_ORIGIN__+0x5c>
  9e:	08 95       	ret

000000a0 <I2C_MASTER_readData>:

I2C_err_t I2C_MASTER_readData(char addr) {

	//Lock mutex
	if (I2C_MASTER_hw_mutex)
  a0:	90 91 02 01 	lds	r25, 0x0102	; 0x800102 <I2C_MASTER_hw_mutex>
  a4:	91 11       	cpse	r25, r1
  a6:	2a c0       	rjmp	.+84     	; 0xfc <I2C_MASTER_readData+0x5c>
		return I2C_NOT_EXCLUSIVE;
		
	I2C_MASTER_hw_mutex = true;
  a8:	91 e0       	ldi	r25, 0x01	; 1
  aa:	90 93 02 01 	sts	0x0102, r25	; 0x800102 <I2C_MASTER_hw_mutex>

	//Start by sending a start condition
	TWCR = (1 << TWEN) | (0 << TWSTO) | (1 << TWSTA) | (1 << TWINT);
  ae:	94 ea       	ldi	r25, 0xA4	; 164
  b0:	90 93 bc 00 	sts	0x00BC, r25	; 0x8000bc <__DATA_REGION_ORIGIN__+0x5c>
	
	//Wait for start to transmit
	while (!(TWCR & (1<<TWINT)));
  b4:	ec eb       	ldi	r30, 0xBC	; 188
  b6:	f0 e0       	ldi	r31, 0x00	; 0
  b8:	90 81       	ld	r25, Z
  ba:	99 23       	and	r25, r25
  bc:	ec f7       	brge	.-6      	; 0xb8 <I2C_MASTER_readData+0x18>
	if ((TWSR & 0xF8) != 0x08)
  be:	90 91 b9 00 	lds	r25, 0x00B9	; 0x8000b9 <__DATA_REGION_ORIGIN__+0x59>
  c2:	98 7f       	andi	r25, 0xF8	; 248
  c4:	98 30       	cpi	r25, 0x08	; 8
  c6:	b1 f4       	brne	.+44     	; 0xf4 <I2C_MASTER_readData+0x54>
		goto I2C_read_fail;
	
	
	//Insert slave ADDR and read bit to data register
	TWDR = (addr << 1) + I2C_read;
  c8:	88 0f       	add	r24, r24
  ca:	8f 5f       	subi	r24, 0xFF	; 255
  cc:	80 93 bb 00 	sts	0x00BB, r24	; 0x8000bb <__DATA_REGION_ORIGIN__+0x5b>
	
	//Send addr and R
	TWCR = (1 << TWEN) | (1 << TWINT);
  d0:	84 e8       	ldi	r24, 0x84	; 132
  d2:	80 93 bc 00 	sts	0x00BC, r24	; 0x8000bc <__DATA_REGION_ORIGIN__+0x5c>
	
	//Wait for status
	while (!(TWCR & (1 << TWINT)));
  d6:	ec eb       	ldi	r30, 0xBC	; 188
  d8:	f0 e0       	ldi	r31, 0x00	; 0
  da:	80 81       	ld	r24, Z
  dc:	88 23       	and	r24, r24
  de:	ec f7       	brge	.-6      	; 0xda <I2C_MASTER_readData+0x3a>
	if ((TWSR & 0xF8) == 0x38)
  e0:	80 91 b9 00 	lds	r24, 0x00B9	; 0x8000b9 <__DATA_REGION_ORIGIN__+0x59>
  e4:	88 7f       	andi	r24, 0xF8	; 248
  e6:	88 33       	cpi	r24, 0x38	; 56
  e8:	29 f0       	breq	.+10     	; 0xf4 <I2C_MASTER_readData+0x54>
		goto I2C_read_fail;
		
	//Enable read interrupt, so CPU can do other stuff
	TWCR = (1 << TWEN) | (1 << TWIE) | (1 << TWINT);
  ea:	85 e8       	ldi	r24, 0x85	; 133
  ec:	80 93 bc 00 	sts	0x00BC, r24	; 0x8000bc <__DATA_REGION_ORIGIN__+0x5c>
	
	return I2C_OK;
  f0:	80 e0       	ldi	r24, 0x00	; 0
  f2:	08 95       	ret
	//Do NOT unlock mutex before data is read
	
I2C_read_fail:
	I2C_MASTER_hw_mutex = false;
  f4:	10 92 02 01 	sts	0x0102, r1	; 0x800102 <I2C_MASTER_hw_mutex>
	return I2C_READ_FAIL;
  f8:	82 e0       	ldi	r24, 0x02	; 2
  fa:	08 95       	ret

I2C_err_t I2C_MASTER_readData(char addr) {

	//Lock mutex
	if (I2C_MASTER_hw_mutex)
		return I2C_NOT_EXCLUSIVE;
  fc:	83 e0       	ldi	r24, 0x03	; 3
	//Do NOT unlock mutex before data is read
	
I2C_read_fail:
	I2C_MASTER_hw_mutex = false;
	return I2C_READ_FAIL;
}
  fe:	08 95       	ret

00000100 <I2C_MASTER_checkData>:

volatile char I2C_MASTER_checkData() {
	return data_ready_flag;
 100:	80 91 00 01 	lds	r24, 0x0100	; 0x800100 <_edata>
}
 104:	08 95       	ret

00000106 <I2C_MASTER_getData>:
	I2C_MASTER_hw_mutex = false;
	return I2C_READ_FAIL;
}

volatile char I2C_MASTER_checkData() {
	return data_ready_flag;
 106:	80 91 00 01 	lds	r24, 0x0100	; 0x800100 <_edata>
}

char I2C_MASTER_getData() {
	
	//Block if no data
	while(!I2C_MASTER_checkData());
 10a:	88 23       	and	r24, r24
 10c:	e1 f3       	breq	.-8      	; 0x106 <I2C_MASTER_getData>
	
	//Update status
	data_ready_flag = false;
 10e:	10 92 00 01 	sts	0x0100, r1	; 0x800100 <_edata>
	
	//Return data
	return local_read_data;
}
 112:	80 91 01 01 	lds	r24, 0x0101	; 0x800101 <local_read_data>
 116:	08 95       	ret

00000118 <__vector_24>:

//Read data from TWI
ISR(TWI_vect) {
 118:	1f 92       	push	r1
 11a:	0f 92       	push	r0
 11c:	0f b6       	in	r0, 0x3f	; 63
 11e:	0f 92       	push	r0
 120:	11 24       	eor	r1, r1
 122:	8f 93       	push	r24
	
	//Save data
	local_read_data = TWDR;
 124:	80 91 bb 00 	lds	r24, 0x00BB	; 0x8000bb <__DATA_REGION_ORIGIN__+0x5b>
 128:	80 93 01 01 	sts	0x0101, r24	; 0x800101 <local_read_data>
	
	//Set flag
	data_ready_flag = true;
 12c:	81 e0       	ldi	r24, 0x01	; 1
 12e:	80 93 00 01 	sts	0x0100, r24	; 0x800100 <_edata>
	
	//Send stop and stop interrupts
	TWCR = (1 << TWEN) | (0 << TWIE) | (1 << TWSTO) | (0 << TWSTA) | (1 << TWINT);
 132:	84 e9       	ldi	r24, 0x94	; 148
 134:	80 93 bc 00 	sts	0x00BC, r24	; 0x8000bc <__DATA_REGION_ORIGIN__+0x5c>
	
	//Unlock mutex from read
	I2C_MASTER_hw_mutex = false;
 138:	10 92 02 01 	sts	0x0102, r1	; 0x800102 <I2C_MASTER_hw_mutex>
	
 13c:	8f 91       	pop	r24
 13e:	0f 90       	pop	r0
 140:	0f be       	out	0x3f, r0	; 63
 142:	0f 90       	pop	r0
 144:	1f 90       	pop	r1
 146:	18 95       	reti

00000148 <I2C_SLAVE_sendData>:
}

I2C_commands_t I2C_SLAVE_getData()
{
	return (I2C_commands_t)I2C_SLAVE_readFirst();
}
 148:	80 93 0c 01 	sts	0x010C, r24	; 0x80010c <I2C_SLAVE_toSend>
 14c:	10 92 09 01 	sts	0x0109, r1	; 0x800109 <I2C_SLAVE_haveSended>
 150:	81 e0       	ldi	r24, 0x01	; 1
 152:	80 93 0a 01 	sts	0x010A, r24	; 0x80010a <I2C_SLAVE_dataReady>
 156:	80 91 06 01 	lds	r24, 0x0106	; 0x800106 <I2C_SLAVE_beginHold>
 15a:	88 23       	and	r24, r24
 15c:	a9 f1       	breq	.+106    	; 0x1c8 <I2C_SLAVE_sendData+0x80>
 15e:	10 92 06 01 	sts	0x0106, r1	; 0x800106 <I2C_SLAVE_beginHold>
 162:	e8 e6       	ldi	r30, 0x68	; 104
 164:	f0 e0       	ldi	r31, 0x00	; 0
 166:	80 81       	ld	r24, Z
 168:	8b 7f       	andi	r24, 0xFB	; 251
 16a:	80 83       	st	Z, r24
 16c:	2b b1       	in	r18, 0x0b	; 11
 16e:	80 91 0c 01 	lds	r24, 0x010C	; 0x80010c <I2C_SLAVE_toSend>
 172:	88 1f       	adc	r24, r24
 174:	88 27       	eor	r24, r24
 176:	88 1f       	adc	r24, r24
 178:	90 e0       	ldi	r25, 0x00	; 0
 17a:	82 95       	swap	r24
 17c:	92 95       	swap	r25
 17e:	90 7f       	andi	r25, 0xF0	; 240
 180:	98 27       	eor	r25, r24
 182:	80 7f       	andi	r24, 0xF0	; 240
 184:	98 27       	eor	r25, r24
 186:	80 71       	andi	r24, 0x10	; 16
 188:	92 2f       	mov	r25, r18
 18a:	9f 7e       	andi	r25, 0xEF	; 239
 18c:	89 0f       	add	r24, r25
 18e:	8b b9       	out	0x0b, r24	; 11
 190:	80 91 09 01 	lds	r24, 0x0109	; 0x800109 <I2C_SLAVE_haveSended>
 194:	8f 5f       	subi	r24, 0xFF	; 255
 196:	80 93 09 01 	sts	0x0109, r24	; 0x800109 <I2C_SLAVE_haveSended>
 19a:	80 91 0c 01 	lds	r24, 0x010C	; 0x80010c <I2C_SLAVE_toSend>
 19e:	29 b1       	in	r18, 0x09	; 9
 1a0:	88 1f       	adc	r24, r24
 1a2:	88 27       	eor	r24, r24
 1a4:	88 1f       	adc	r24, r24
 1a6:	90 e0       	ldi	r25, 0x00	; 0
 1a8:	82 95       	swap	r24
 1aa:	92 95       	swap	r25
 1ac:	90 7f       	andi	r25, 0xF0	; 240
 1ae:	98 27       	eor	r25, r24
 1b0:	80 7f       	andi	r24, 0xF0	; 240
 1b2:	98 27       	eor	r25, r24
 1b4:	20 71       	andi	r18, 0x10	; 16
 1b6:	30 e0       	ldi	r19, 0x00	; 0
 1b8:	82 17       	cp	r24, r18
 1ba:	93 07       	cpc	r25, r19
 1bc:	71 f7       	brne	.-36     	; 0x19a <I2C_SLAVE_sendData+0x52>
 1be:	e8 e6       	ldi	r30, 0x68	; 104
 1c0:	f0 e0       	ldi	r31, 0x00	; 0
 1c2:	80 81       	ld	r24, Z
 1c4:	84 60       	ori	r24, 0x04	; 4
 1c6:	80 83       	st	Z, r24
 1c8:	5a 9a       	sbi	0x0b, 2	; 11
 1ca:	08 95       	ret

000001cc <I2C_SLAVE_init>:
 1cc:	e9 e6       	ldi	r30, 0x69	; 105
 1ce:	f0 e0       	ldi	r31, 0x00	; 0
 1d0:	80 81       	ld	r24, Z
 1d2:	82 60       	ori	r24, 0x02	; 2
 1d4:	80 83       	st	Z, r24
 1d6:	80 81       	ld	r24, Z
 1d8:	81 60       	ori	r24, 0x01	; 1
 1da:	80 83       	st	Z, r24
 1dc:	e8 e6       	ldi	r30, 0x68	; 104
 1de:	f0 e0       	ldi	r31, 0x00	; 0
 1e0:	80 81       	ld	r24, Z
 1e2:	80 61       	ori	r24, 0x10	; 16
 1e4:	80 93 6d 00 	sts	0x006D, r24	; 0x80006d <__DATA_REGION_ORIGIN__+0xd>
 1e8:	80 81       	ld	r24, Z
 1ea:	84 60       	ori	r24, 0x04	; 4
 1ec:	80 83       	st	Z, r24
 1ee:	8a b1       	in	r24, 0x0a	; 10
 1f0:	8b 7e       	andi	r24, 0xEB	; 235
 1f2:	8a b9       	out	0x0a, r24	; 10
 1f4:	8a b1       	in	r24, 0x0a	; 10
 1f6:	80 6e       	ori	r24, 0xE0	; 224
 1f8:	8a b9       	out	0x0a, r24	; 10
 1fa:	8b b1       	in	r24, 0x0b	; 11
 1fc:	84 61       	ori	r24, 0x14	; 20
 1fe:	8b b9       	out	0x0b, r24	; 11
 200:	08 95       	ret

00000202 <I2C_SLAVE_sendBit>:
 202:	90 91 0a 01 	lds	r25, 0x010A	; 0x80010a <I2C_SLAVE_dataReady>
 206:	91 30       	cpi	r25, 0x01	; 1
 208:	41 f4       	brne	.+16     	; 0x21a <I2C_SLAVE_sendBit+0x18>
 20a:	90 91 0c 01 	lds	r25, 0x010C	; 0x80010c <I2C_SLAVE_toSend>
 20e:	90 93 0b 01 	sts	0x010B, r25	; 0x80010b <I2C_SLAVE_tempSave>
 212:	92 e0       	ldi	r25, 0x02	; 2
 214:	90 93 0a 01 	sts	0x010A, r25	; 0x80010a <I2C_SLAVE_dataReady>
 218:	03 c0       	rjmp	.+6      	; 0x220 <I2C_SLAVE_sendBit+0x1e>
 21a:	91 e0       	ldi	r25, 0x01	; 1
 21c:	90 93 0a 01 	sts	0x010A, r25	; 0x80010a <I2C_SLAVE_dataReady>
 220:	87 95       	ror	r24
 222:	88 27       	eor	r24, r24
 224:	87 95       	ror	r24
 226:	80 93 0c 01 	sts	0x010C, r24	; 0x80010c <I2C_SLAVE_toSend>
 22a:	87 e0       	ldi	r24, 0x07	; 7
 22c:	80 93 09 01 	sts	0x0109, r24	; 0x800109 <I2C_SLAVE_haveSended>
 230:	08 95       	ret

00000232 <I2C_SLAVE_beginSend>:
 232:	e9 e6       	ldi	r30, 0x69	; 105
 234:	f0 e0       	ldi	r31, 0x00	; 0
 236:	80 81       	ld	r24, Z
 238:	82 60       	ori	r24, 0x02	; 2
 23a:	80 83       	st	Z, r24
 23c:	80 81       	ld	r24, Z
 23e:	8e 7f       	andi	r24, 0xFE	; 254
 240:	80 83       	st	Z, r24
 242:	80 91 0a 01 	lds	r24, 0x010A	; 0x80010a <I2C_SLAVE_dataReady>
 246:	82 30       	cpi	r24, 0x02	; 2
 248:	21 f4       	brne	.+8      	; 0x252 <I2C_SLAVE_beginSend+0x20>
 24a:	83 e0       	ldi	r24, 0x03	; 3
 24c:	80 93 0a 01 	sts	0x010A, r24	; 0x80010a <I2C_SLAVE_dataReady>
 250:	08 95       	ret
 252:	10 92 0a 01 	sts	0x010A, r1	; 0x80010a <I2C_SLAVE_dataReady>
 256:	08 95       	ret

00000258 <I2C_SLAVE_hold>:
 258:	80 91 0a 01 	lds	r24, 0x010A	; 0x80010a <I2C_SLAVE_dataReady>
 25c:	81 50       	subi	r24, 0x01	; 1
 25e:	82 30       	cpi	r24, 0x02	; 2
 260:	28 f4       	brcc	.+10     	; 0x26c <I2C_SLAVE_hold+0x14>
 262:	10 92 06 01 	sts	0x0106, r1	; 0x800106 <I2C_SLAVE_beginHold>
 266:	81 e0       	ldi	r24, 0x01	; 1
 268:	90 e0       	ldi	r25, 0x00	; 0
 26a:	08 95       	ret
 26c:	5a 98       	cbi	0x0b, 2	; 11
 26e:	80 e0       	ldi	r24, 0x00	; 0
 270:	90 e0       	ldi	r25, 0x00	; 0
 272:	08 95       	ret

00000274 <I2C_SLAVE_inc>:
 274:	fc 01       	movw	r30, r24
 276:	80 81       	ld	r24, Z
 278:	91 e0       	ldi	r25, 0x01	; 1
 27a:	98 0f       	add	r25, r24
 27c:	92 30       	cpi	r25, 0x02	; 2
 27e:	10 f4       	brcc	.+4      	; 0x284 <I2C_SLAVE_inc+0x10>
 280:	90 83       	st	Z, r25
 282:	08 95       	ret
 284:	10 82       	st	Z, r1
 286:	08 95       	ret

00000288 <I2C_SLAVE_addData>:
 288:	cf 93       	push	r28
 28a:	c8 2f       	mov	r28, r24
 28c:	80 91 03 01 	lds	r24, 0x0103	; 0x800103 <I2C_SLAVE_full>
 290:	88 23       	and	r24, r24
 292:	29 f0       	breq	.+10     	; 0x29e <I2C_SLAVE_addData+0x16>
 294:	80 91 05 01 	lds	r24, 0x0105	; 0x800105 <I2C_SLAVE_first>
 298:	8f 5f       	subi	r24, 0xFF	; 255
 29a:	80 93 05 01 	sts	0x0105, r24	; 0x800105 <I2C_SLAVE_first>
 29e:	84 e0       	ldi	r24, 0x04	; 4
 2a0:	91 e0       	ldi	r25, 0x01	; 1
 2a2:	0e 94 3a 01 	call	0x274	; 0x274 <I2C_SLAVE_inc>
 2a6:	e8 2f       	mov	r30, r24
 2a8:	f0 e0       	ldi	r31, 0x00	; 0
 2aa:	e0 5f       	subi	r30, 0xF0	; 240
 2ac:	fe 4f       	sbci	r31, 0xFE	; 254
 2ae:	c0 83       	st	Z, r28
 2b0:	90 91 04 01 	lds	r25, 0x0104	; 0x800104 <I2C_SLAVE_last>
 2b4:	80 91 05 01 	lds	r24, 0x0105	; 0x800105 <I2C_SLAVE_first>
 2b8:	98 13       	cpse	r25, r24
 2ba:	03 c0       	rjmp	.+6      	; 0x2c2 <I2C_SLAVE_addData+0x3a>
 2bc:	81 e0       	ldi	r24, 0x01	; 1
 2be:	80 93 03 01 	sts	0x0103, r24	; 0x800103 <I2C_SLAVE_full>
 2c2:	cf 91       	pop	r28
 2c4:	08 95       	ret

000002c6 <__vector_1>:
	return 0;
}


ISR(I2C_SLAVE_SCL_vect)
{
 2c6:	1f 92       	push	r1
 2c8:	0f 92       	push	r0
 2ca:	0f b6       	in	r0, 0x3f	; 63
 2cc:	0f 92       	push	r0
 2ce:	11 24       	eor	r1, r1
 2d0:	2f 93       	push	r18
 2d2:	3f 93       	push	r19
 2d4:	4f 93       	push	r20
 2d6:	5f 93       	push	r21
 2d8:	6f 93       	push	r22
 2da:	7f 93       	push	r23
 2dc:	8f 93       	push	r24
 2de:	9f 93       	push	r25
 2e0:	af 93       	push	r26
 2e2:	bf 93       	push	r27
 2e4:	ef 93       	push	r30
 2e6:	ff 93       	push	r31
	if(I2C_SLAVE_startRecived)
 2e8:	80 91 07 01 	lds	r24, 0x0107	; 0x800107 <I2C_SLAVE_startRecived>
 2ec:	88 23       	and	r24, r24
 2ee:	09 f4       	brne	.+2      	; 0x2f2 <__vector_1+0x2c>
 2f0:	fc c0       	rjmp	.+504    	; 0x4ea <__LOCK_REGION_LENGTH__+0xea>
	{
		if(I2C_SLAVE_SCL_IS_RISING())
 2f2:	80 91 69 00 	lds	r24, 0x0069	; 0x800069 <__DATA_REGION_ORIGIN__+0x9>
 2f6:	83 70       	andi	r24, 0x03	; 3
 2f8:	83 30       	cpi	r24, 0x03	; 3
 2fa:	09 f0       	breq	.+2      	; 0x2fe <__vector_1+0x38>
 2fc:	9d c0       	rjmp	.+314    	; 0x438 <__LOCK_REGION_LENGTH__+0x38>
		{
			if(I2C_SLAVE_haveSended > 7)
 2fe:	80 91 09 01 	lds	r24, 0x0109	; 0x800109 <I2C_SLAVE_haveSended>
 302:	88 30       	cpi	r24, 0x08	; 8
 304:	28 f0       	brcs	.+10     	; 0x310 <__vector_1+0x4a>
			{
				I2C_SLAVE_haveSended = 0;
 306:	10 92 09 01 	sts	0x0109, r1	; 0x800109 <I2C_SLAVE_haveSended>
				I2C_SLAVE_PORT |= (1 << I2C_SLAVE_SDA | 1 << I2C_SLAVE_SCL);
 30a:	8b b1       	in	r24, 0x0b	; 11
 30c:	84 61       	ori	r24, 0x14	; 20
 30e:	8b b9       	out	0x0b, r24	; 11
				//I2C_SLAVE_DDR |= 1 << I2C_SLAVE_SDA;
			}
			if(I2C_SLAVE_recevedBits < 7)
 310:	40 91 0d 01 	lds	r20, 0x010D	; 0x80010d <I2C_SLAVE_recevedBits>
 314:	47 30       	cpi	r20, 0x07	; 7
 316:	48 f5       	brcc	.+82     	; 0x36a <__vector_1+0xa4>
			{
				I2C_SLAVE_recevedAddr = I2C_SLAVE_SET_BIT(I2C_SLAVE_recevedAddr,6-I2C_SLAVE_recevedBits,I2C_SLAVE_PIN,I2C_SLAVE_SDA);
 318:	e6 e0       	ldi	r30, 0x06	; 6
 31a:	f0 e0       	ldi	r31, 0x00	; 0
 31c:	e4 1b       	sub	r30, r20
 31e:	f1 09       	sbc	r31, r1
 320:	21 e0       	ldi	r18, 0x01	; 1
 322:	30 e0       	ldi	r19, 0x00	; 0
 324:	b9 01       	movw	r22, r18
 326:	0e 2e       	mov	r0, r30
 328:	02 c0       	rjmp	.+4      	; 0x32e <__vector_1+0x68>
 32a:	66 0f       	add	r22, r22
 32c:	77 1f       	adc	r23, r23
 32e:	0a 94       	dec	r0
 330:	e2 f7       	brpl	.-8      	; 0x32a <__vector_1+0x64>
 332:	99 b1       	in	r25, 0x09	; 9
 334:	26 2f       	mov	r18, r22
 336:	20 95       	com	r18
 338:	80 91 0e 01 	lds	r24, 0x010E	; 0x80010e <I2C_SLAVE_recevedAddr>
 33c:	82 23       	and	r24, r18
 33e:	92 95       	swap	r25
 340:	9f 70       	andi	r25, 0x0F	; 15
 342:	29 2f       	mov	r18, r25
 344:	30 e0       	ldi	r19, 0x00	; 0
 346:	02 c0       	rjmp	.+4      	; 0x34c <__vector_1+0x86>
 348:	22 0f       	add	r18, r18
 34a:	33 1f       	adc	r19, r19
 34c:	ea 95       	dec	r30
 34e:	e2 f7       	brpl	.-8      	; 0x348 <__vector_1+0x82>
 350:	26 23       	and	r18, r22
 352:	82 0f       	add	r24, r18
 354:	80 93 0e 01 	sts	0x010E, r24	; 0x80010e <I2C_SLAVE_recevedAddr>
				I2C_SLAVE_recevedBits++;
 358:	4f 5f       	subi	r20, 0xFF	; 255
 35a:	40 93 0d 01 	sts	0x010D, r20	; 0x80010d <I2C_SLAVE_recevedBits>
				if(I2C_SLAVE_recevedBits == 6)
 35e:	46 30       	cpi	r20, 0x06	; 6
 360:	09 f0       	breq	.+2      	; 0x364 <__vector_1+0x9e>
 362:	c3 c0       	rjmp	.+390    	; 0x4ea <__LOCK_REGION_LENGTH__+0xea>
				{
					sendChar(I2C_SLAVE_recevedAddr);
 364:	0e 94 44 03 	call	0x688	; 0x688 <sendChar>
 368:	c0 c0       	rjmp	.+384    	; 0x4ea <__LOCK_REGION_LENGTH__+0xea>
				}
			}
			else if(I2C_SLAVE_recevedAddr == I2C_SLAVE_ADDR && I2C_SLAVE_recevedBits < 8)
 36a:	80 91 0e 01 	lds	r24, 0x010E	; 0x80010e <I2C_SLAVE_recevedAddr>
 36e:	80 37       	cpi	r24, 0x70	; 112
 370:	09 f0       	breq	.+2      	; 0x374 <__vector_1+0xae>
 372:	bb c0       	rjmp	.+374    	; 0x4ea <__LOCK_REGION_LENGTH__+0xea>
 374:	48 30       	cpi	r20, 0x08	; 8
 376:	b8 f4       	brcc	.+46     	; 0x3a6 <__vector_1+0xe0>
			{
				I2C_SLAVE_recevedBits++;
 378:	4f 5f       	subi	r20, 0xFF	; 255
 37a:	40 93 0d 01 	sts	0x010D, r20	; 0x80010d <I2C_SLAVE_recevedBits>
				I2C_SLAVE_shouldWrite = I2C_SLAVE_SET_BIT(I2C_SLAVE_shouldWrite,0,I2C_SLAVE_PIN,I2C_SLAVE_SDA);//0;
 37e:	89 b1       	in	r24, 0x09	; 9
 380:	90 91 0f 01 	lds	r25, 0x010F	; 0x80010f <I2C_SLAVE_shouldWrite>
 384:	9e 7f       	andi	r25, 0xFE	; 254
 386:	82 95       	swap	r24
 388:	81 70       	andi	r24, 0x01	; 1
 38a:	89 0f       	add	r24, r25
 38c:	80 93 0f 01 	sts	0x010F, r24	; 0x80010f <I2C_SLAVE_shouldWrite>
				if(I2C_SLAVE_shouldWrite)
 390:	88 23       	and	r24, r24
 392:	19 f0       	breq	.+6      	; 0x39a <__vector_1+0xd4>
				{
					I2C_SLAVE_beginHold = true;
 394:	81 e0       	ldi	r24, 0x01	; 1
 396:	80 93 06 01 	sts	0x0106, r24	; 0x800106 <I2C_SLAVE_beginHold>
				}
				I2C_SLAVE_sendBit(0);
 39a:	80 e0       	ldi	r24, 0x00	; 0
 39c:	0e 94 01 01 	call	0x202	; 0x202 <I2C_SLAVE_sendBit>
				I2C_SLAVE_beginSend();
 3a0:	0e 94 19 01 	call	0x232	; 0x232 <I2C_SLAVE_beginSend>
 3a4:	a2 c0       	rjmp	.+324    	; 0x4ea <__LOCK_REGION_LENGTH__+0xea>
			}
			else if(I2C_SLAVE_recevedAddr == I2C_SLAVE_ADDR && I2C_SLAVE_recevedBits < (9))
 3a6:	49 30       	cpi	r20, 0x09	; 9
 3a8:	20 f4       	brcc	.+8      	; 0x3b2 <__vector_1+0xec>
			{
				I2C_SLAVE_recevedBits++;
 3aa:	4f 5f       	subi	r20, 0xFF	; 255
 3ac:	40 93 0d 01 	sts	0x010D, r20	; 0x80010d <I2C_SLAVE_recevedBits>
 3b0:	9c c0       	rjmp	.+312    	; 0x4ea <__LOCK_REGION_LENGTH__+0xea>
			}
			else if(I2C_SLAVE_recevedAddr == I2C_SLAVE_ADDR && I2C_SLAVE_recevedBits < (17))
 3b2:	41 31       	cpi	r20, 0x11	; 17
 3b4:	08 f0       	brcs	.+2      	; 0x3b8 <__vector_1+0xf2>
 3b6:	99 c0       	rjmp	.+306    	; 0x4ea <__LOCK_REGION_LENGTH__+0xea>
			{
				if(!I2C_SLAVE_shouldWrite)
 3b8:	80 91 0f 01 	lds	r24, 0x010F	; 0x80010f <I2C_SLAVE_shouldWrite>
 3bc:	81 11       	cpse	r24, r1
 3be:	31 c0       	rjmp	.+98     	; 0x422 <__LOCK_REGION_LENGTH__+0x22>
				{
					I2C_SLAVE_recevedData = I2C_SLAVE_SET_BIT(I2C_SLAVE_recevedData,7-(I2C_SLAVE_recevedBits-8),I2C_SLAVE_PIN,I2C_SLAVE_SDA);
 3c0:	ef e0       	ldi	r30, 0x0F	; 15
 3c2:	f0 e0       	ldi	r31, 0x00	; 0
 3c4:	e4 1b       	sub	r30, r20
 3c6:	f1 09       	sbc	r31, r1
 3c8:	21 e0       	ldi	r18, 0x01	; 1
 3ca:	30 e0       	ldi	r19, 0x00	; 0
 3cc:	b9 01       	movw	r22, r18
 3ce:	0e 2e       	mov	r0, r30
 3d0:	02 c0       	rjmp	.+4      	; 0x3d6 <__vector_1+0x110>
 3d2:	66 0f       	add	r22, r22
 3d4:	77 1f       	adc	r23, r23
 3d6:	0a 94       	dec	r0
 3d8:	e2 f7       	brpl	.-8      	; 0x3d2 <__vector_1+0x10c>
 3da:	99 b1       	in	r25, 0x09	; 9
 3dc:	26 2f       	mov	r18, r22
 3de:	20 95       	com	r18
 3e0:	80 91 08 01 	lds	r24, 0x0108	; 0x800108 <I2C_SLAVE_recevedData>
 3e4:	82 23       	and	r24, r18
 3e6:	92 95       	swap	r25
 3e8:	9f 70       	andi	r25, 0x0F	; 15
 3ea:	29 2f       	mov	r18, r25
 3ec:	30 e0       	ldi	r19, 0x00	; 0
 3ee:	02 c0       	rjmp	.+4      	; 0x3f4 <__vector_1+0x12e>
 3f0:	22 0f       	add	r18, r18
 3f2:	33 1f       	adc	r19, r19
 3f4:	ea 95       	dec	r30
 3f6:	e2 f7       	brpl	.-8      	; 0x3f0 <__vector_1+0x12a>
 3f8:	26 23       	and	r18, r22
 3fa:	82 0f       	add	r24, r18
 3fc:	80 93 08 01 	sts	0x0108, r24	; 0x800108 <I2C_SLAVE_recevedData>
					I2C_SLAVE_recevedBits++;
 400:	4f 5f       	subi	r20, 0xFF	; 255
 402:	40 93 0d 01 	sts	0x010D, r20	; 0x80010d <I2C_SLAVE_recevedBits>
					if(I2C_SLAVE_recevedBits == 16)
 406:	40 31       	cpi	r20, 0x10	; 16
 408:	09 f0       	breq	.+2      	; 0x40c <__LOCK_REGION_LENGTH__+0xc>
 40a:	6f c0       	rjmp	.+222    	; 0x4ea <__LOCK_REGION_LENGTH__+0xea>
					{
						I2C_SLAVE_addData(I2C_SLAVE_recevedData);
 40c:	0e 94 44 01 	call	0x288	; 0x288 <I2C_SLAVE_addData>
						I2C_SLAVE_sendBit(0);
 410:	80 e0       	ldi	r24, 0x00	; 0
 412:	0e 94 01 01 	call	0x202	; 0x202 <I2C_SLAVE_sendBit>
						I2C_SLAVE_beginSend();
 416:	0e 94 19 01 	call	0x232	; 0x232 <I2C_SLAVE_beginSend>
						I2C_SLAVE_recevedBits = 8;
 41a:	88 e0       	ldi	r24, 0x08	; 8
 41c:	80 93 0d 01 	sts	0x010D, r24	; 0x80010d <I2C_SLAVE_recevedBits>
 420:	64 c0       	rjmp	.+200    	; 0x4ea <__LOCK_REGION_LENGTH__+0xea>
					}
				}
				else if(I2C_SLAVE_shouldWrite && I2C_SLAVE_hold())
 422:	0e 94 2c 01 	call	0x258	; 0x258 <I2C_SLAVE_hold>
 426:	89 2b       	or	r24, r25
 428:	09 f4       	brne	.+2      	; 0x42c <__LOCK_REGION_LENGTH__+0x2c>
 42a:	5f c0       	rjmp	.+190    	; 0x4ea <__LOCK_REGION_LENGTH__+0xea>
				{
					I2C_SLAVE_beginSend();
 42c:	0e 94 19 01 	call	0x232	; 0x232 <I2C_SLAVE_beginSend>
					I2C_SLAVE_recevedBits = 7;
 430:	87 e0       	ldi	r24, 0x07	; 7
 432:	80 93 0d 01 	sts	0x010D, r24	; 0x80010d <I2C_SLAVE_recevedBits>
 436:	59 c0       	rjmp	.+178    	; 0x4ea <__LOCK_REGION_LENGTH__+0xea>
				}
			}
		}
		else if(I2C_SLAVE_SCL_IS_FALLING())
 438:	80 91 69 00 	lds	r24, 0x0069	; 0x800069 <__DATA_REGION_ORIGIN__+0x9>
 43c:	83 70       	andi	r24, 0x03	; 3
 43e:	82 30       	cpi	r24, 0x02	; 2
 440:	09 f0       	breq	.+2      	; 0x444 <__LOCK_REGION_LENGTH__+0x44>
 442:	53 c0       	rjmp	.+166    	; 0x4ea <__LOCK_REGION_LENGTH__+0xea>
		{
			//sendChar(I2C_SLAVE_haveSended);
			if(I2C_SLAVE_haveSended > 7)
 444:	30 91 09 01 	lds	r19, 0x0109	; 0x800109 <I2C_SLAVE_haveSended>
 448:	38 30       	cpi	r19, 0x08	; 8
 44a:	90 f1       	brcs	.+100    	; 0x4b0 <__LOCK_REGION_LENGTH__+0xb0>
			{
				if(I2C_SLAVE_dataReady == 2 || I2C_SLAVE_dataReady == 3)
 44c:	80 91 0a 01 	lds	r24, 0x010A	; 0x80010a <I2C_SLAVE_dataReady>
 450:	82 50       	subi	r24, 0x02	; 2
 452:	82 30       	cpi	r24, 0x02	; 2
 454:	e0 f4       	brcc	.+56     	; 0x48e <__LOCK_REGION_LENGTH__+0x8e>
				{
					//sendChar(I2C_SLAVE_tempSave);
					I2C_SLAVE_dataReady = 1;
 456:	81 e0       	ldi	r24, 0x01	; 1
 458:	80 93 0a 01 	sts	0x010A, r24	; 0x80010a <I2C_SLAVE_dataReady>
					I2C_SLAVE_haveSended = 1;
 45c:	80 93 09 01 	sts	0x0109, r24	; 0x800109 <I2C_SLAVE_haveSended>
					I2C_SLAVE_toSend = I2C_SLAVE_tempSave;
 460:	80 91 0b 01 	lds	r24, 0x010B	; 0x80010b <I2C_SLAVE_tempSave>
 464:	80 93 0c 01 	sts	0x010C, r24	; 0x80010c <I2C_SLAVE_toSend>
					I2C_SLAVE_PORT = I2C_SLAVE_SET_BIT(I2C_SLAVE_PORT,I2C_SLAVE_SDA,I2C_SLAVE_toSend,7);
 468:	2b b1       	in	r18, 0x0b	; 11
 46a:	80 91 0c 01 	lds	r24, 0x010C	; 0x80010c <I2C_SLAVE_toSend>
 46e:	88 1f       	adc	r24, r24
 470:	88 27       	eor	r24, r24
 472:	88 1f       	adc	r24, r24
 474:	90 e0       	ldi	r25, 0x00	; 0
 476:	82 95       	swap	r24
 478:	92 95       	swap	r25
 47a:	90 7f       	andi	r25, 0xF0	; 240
 47c:	98 27       	eor	r25, r24
 47e:	80 7f       	andi	r24, 0xF0	; 240
 480:	98 27       	eor	r25, r24
 482:	80 71       	andi	r24, 0x10	; 16
 484:	92 2f       	mov	r25, r18
 486:	9f 7e       	andi	r25, 0xEF	; 239
 488:	89 0f       	add	r24, r25
 48a:	8b b9       	out	0x0b, r24	; 11
 48c:	01 c0       	rjmp	.+2      	; 0x490 <__LOCK_REGION_LENGTH__+0x90>
				}
				else
				{
					//I2C_SLAVE_recevedBits += I2C_SLAVE_haveSended;
					I2C_SLAVE_PORT |= (1 << I2C_SLAVE_SDA);
 48e:	5c 9a       	sbi	0x0b, 4	; 11
				}
				if(I2C_SLAVE_beginHold)
 490:	80 91 06 01 	lds	r24, 0x0106	; 0x800106 <I2C_SLAVE_beginHold>
 494:	88 23       	and	r24, r24
 496:	19 f0       	breq	.+6      	; 0x49e <__LOCK_REGION_LENGTH__+0x9e>
				{
					I2C_SLAVE_hold();
 498:	0e 94 2c 01 	call	0x258	; 0x258 <I2C_SLAVE_hold>
 49c:	26 c0       	rjmp	.+76     	; 0x4ea <__LOCK_REGION_LENGTH__+0xea>
				}
				else
				{
					I2C_SLAVE_SCL_RISING();
 49e:	e9 e6       	ldi	r30, 0x69	; 105
 4a0:	f0 e0       	ldi	r31, 0x00	; 0
 4a2:	80 81       	ld	r24, Z
 4a4:	82 60       	ori	r24, 0x02	; 2
 4a6:	80 83       	st	Z, r24
 4a8:	80 81       	ld	r24, Z
 4aa:	81 60       	ori	r24, 0x01	; 1
 4ac:	80 83       	st	Z, r24
 4ae:	1d c0       	rjmp	.+58     	; 0x4ea <__LOCK_REGION_LENGTH__+0xea>
				}
			}
			else
			{
				
				I2C_SLAVE_PORT = I2C_SLAVE_SET_BIT(I2C_SLAVE_PORT,I2C_SLAVE_SDA,I2C_SLAVE_toSend,(7-I2C_SLAVE_haveSended));//&= ~(1 << I2C_SLAVE_SDA);
 4b0:	2b b1       	in	r18, 0x0b	; 11
 4b2:	80 91 0c 01 	lds	r24, 0x010C	; 0x80010c <I2C_SLAVE_toSend>
 4b6:	90 e0       	ldi	r25, 0x00	; 0
 4b8:	47 e0       	ldi	r20, 0x07	; 7
 4ba:	50 e0       	ldi	r21, 0x00	; 0
 4bc:	43 1b       	sub	r20, r19
 4be:	51 09       	sbc	r21, r1
 4c0:	02 c0       	rjmp	.+4      	; 0x4c6 <__LOCK_REGION_LENGTH__+0xc6>
 4c2:	95 95       	asr	r25
 4c4:	87 95       	ror	r24
 4c6:	4a 95       	dec	r20
 4c8:	e2 f7       	brpl	.-8      	; 0x4c2 <__LOCK_REGION_LENGTH__+0xc2>
 4ca:	82 95       	swap	r24
 4cc:	92 95       	swap	r25
 4ce:	90 7f       	andi	r25, 0xF0	; 240
 4d0:	98 27       	eor	r25, r24
 4d2:	80 7f       	andi	r24, 0xF0	; 240
 4d4:	98 27       	eor	r25, r24
 4d6:	80 71       	andi	r24, 0x10	; 16
 4d8:	92 2f       	mov	r25, r18
 4da:	9f 7e       	andi	r25, 0xEF	; 239
 4dc:	89 0f       	add	r24, r25
 4de:	8b b9       	out	0x0b, r24	; 11
				
				I2C_SLAVE_haveSended++;
 4e0:	80 91 09 01 	lds	r24, 0x0109	; 0x800109 <I2C_SLAVE_haveSended>
 4e4:	8f 5f       	subi	r24, 0xFF	; 255
 4e6:	80 93 09 01 	sts	0x0109, r24	; 0x800109 <I2C_SLAVE_haveSended>
			}
		}
	}
	
}
 4ea:	ff 91       	pop	r31
 4ec:	ef 91       	pop	r30
 4ee:	bf 91       	pop	r27
 4f0:	af 91       	pop	r26
 4f2:	9f 91       	pop	r25
 4f4:	8f 91       	pop	r24
 4f6:	7f 91       	pop	r23
 4f8:	6f 91       	pop	r22
 4fa:	5f 91       	pop	r21
 4fc:	4f 91       	pop	r20
 4fe:	3f 91       	pop	r19
 500:	2f 91       	pop	r18
 502:	0f 90       	pop	r0
 504:	0f be       	out	0x3f, r0	; 63
 506:	0f 90       	pop	r0
 508:	1f 90       	pop	r1
 50a:	18 95       	reti

0000050c <__vector_5>:


ISR(I2C_SLAVE_SDA_vect)
{
 50c:	1f 92       	push	r1
 50e:	0f 92       	push	r0
 510:	0f b6       	in	r0, 0x3f	; 63
 512:	0f 92       	push	r0
 514:	11 24       	eor	r1, r1
 516:	8f 93       	push	r24
 518:	ef 93       	push	r30
 51a:	ff 93       	push	r31
	if((I2C_SLAVE_PIN & 1 << I2C_SLAVE_SCL) ==(1 << I2C_SLAVE_SCL))
 51c:	4a 9b       	sbis	0x09, 2	; 9
 51e:	17 c0       	rjmp	.+46     	; 0x54e <__vector_5+0x42>
	{
		if(I2C_SLAVE_PIN & 1 << I2C_SLAVE_SDA)
 520:	4c 9b       	sbis	0x09, 4	; 9
 522:	12 c0       	rjmp	.+36     	; 0x548 <__vector_5+0x3c>
		{
			I2C_SLAVE_startRecived = false;
 524:	10 92 07 01 	sts	0x0107, r1	; 0x800107 <I2C_SLAVE_startRecived>
			I2C_SLAVE_startRecived = true;
		}
		if(I2C_SLAVE_startRecived == false)
		{
			//sendChar(0xDA);
			I2C_SLAVE_recevedAddr = 0;
 528:	10 92 0e 01 	sts	0x010E, r1	; 0x80010e <I2C_SLAVE_recevedAddr>
			I2C_SLAVE_recevedBits = 0;
 52c:	10 92 0d 01 	sts	0x010D, r1	; 0x80010d <I2C_SLAVE_recevedBits>
			I2C_SLAVE_SCL_RISING();
 530:	e9 e6       	ldi	r30, 0x69	; 105
 532:	f0 e0       	ldi	r31, 0x00	; 0
 534:	80 81       	ld	r24, Z
 536:	82 60       	ori	r24, 0x02	; 2
 538:	80 83       	st	Z, r24
 53a:	80 81       	ld	r24, Z
 53c:	81 60       	ori	r24, 0x01	; 1
 53e:	80 83       	st	Z, r24
			I2C_SLAVE_PORT |= (1 << I2C_SLAVE_SDA | 1 << I2C_SLAVE_SCL);
 540:	8b b1       	in	r24, 0x0b	; 11
 542:	84 61       	ori	r24, 0x14	; 20
 544:	8b b9       	out	0x0b, r24	; 11
 546:	03 c0       	rjmp	.+6      	; 0x54e <__vector_5+0x42>
		{
			I2C_SLAVE_startRecived = false;
		}
		else
		{
			I2C_SLAVE_startRecived = true;
 548:	81 e0       	ldi	r24, 0x01	; 1
 54a:	80 93 07 01 	sts	0x0107, r24	; 0x800107 <I2C_SLAVE_startRecived>
			I2C_SLAVE_recevedBits = 0;
			I2C_SLAVE_SCL_RISING();
			I2C_SLAVE_PORT |= (1 << I2C_SLAVE_SDA | 1 << I2C_SLAVE_SCL);
		}
	}
}
 54e:	ff 91       	pop	r31
 550:	ef 91       	pop	r30
 552:	8f 91       	pop	r24
 554:	0f 90       	pop	r0
 556:	0f be       	out	0x3f, r0	; 63
 558:	0f 90       	pop	r0
 55a:	1f 90       	pop	r1
 55c:	18 95       	reti

0000055e <main>:


int main(void)
{
	uint8_t c = 0x00;
	I2C_SLAVE_init();
 55e:	0e 94 e6 00 	call	0x1cc	; 0x1cc <I2C_SLAVE_init>
	I2C_MASTER_init(255,I2C_MASTER_PRESCALE_64);
 562:	63 e0       	ldi	r22, 0x03	; 3
 564:	8f ef       	ldi	r24, 0xFF	; 255
 566:	0e 94 48 00 	call	0x90	; 0x90 <I2C_MASTER_init>
	I2C_SLAVE_SCL_INT_ENAB(1);
 56a:	e8 9a       	sbi	0x1d, 0	; 29
	sei();
 56c:	78 94       	sei
	initUART(9600, 8, 1, 0);
 56e:	00 e0       	ldi	r16, 0x00	; 0
 570:	21 e0       	ldi	r18, 0x01	; 1
 572:	48 e0       	ldi	r20, 0x08	; 8
 574:	60 e8       	ldi	r22, 0x80	; 128
 576:	75 e2       	ldi	r23, 0x25	; 37
 578:	80 e0       	ldi	r24, 0x00	; 0
 57a:	90 e0       	ldi	r25, 0x00	; 0
 57c:	0e 94 d5 02 	call	0x5aa	; 0x5aa <initUART>
#include "USART.h"


int main(void)
{
	uint8_t c = 0x00;
 580:	c0 e0       	ldi	r28, 0x00	; 0
		I2C_MASTER_sendData(0x70,MAKE_PANCAKE);
		_delay_ms(500);
		sendChar(I2C_SLAVE_readFirst());
		sendChar(I2C_SLAVE_readFirst());
		sendChar(I2C_SLAVE_readFirst());*/
		I2C_SLAVE_sendData(c);
 582:	8c 2f       	mov	r24, r28
 584:	0e 94 a4 00 	call	0x148	; 0x148 <I2C_SLAVE_sendData>
		I2C_MASTER_readData(0x70);
 588:	80 e7       	ldi	r24, 0x70	; 112
 58a:	0e 94 50 00 	call	0xa0	; 0xa0 <I2C_MASTER_readData>
		if(c == 255)
 58e:	cf 3f       	cpi	r28, 0xFF	; 255
 590:	11 f0       	breq	.+4      	; 0x596 <main+0x38>
		{
			c = 0;
		}
		else
		{
			c++;
 592:	cf 5f       	subi	r28, 0xFF	; 255
 594:	01 c0       	rjmp	.+2      	; 0x598 <main+0x3a>
		sendChar(I2C_SLAVE_readFirst());*/
		I2C_SLAVE_sendData(c);
		I2C_MASTER_readData(0x70);
		if(c == 255)
		{
			c = 0;
 596:	c0 e0       	ldi	r28, 0x00	; 0
		}
		else
		{
			c++;
		}
		while(!I2C_MASTER_checkData()){}
 598:	0e 94 80 00 	call	0x100	; 0x100 <I2C_MASTER_checkData>
 59c:	88 23       	and	r24, r24
 59e:	e1 f3       	breq	.-8      	; 0x598 <main+0x3a>
		sendChar(I2C_MASTER_getData());
 5a0:	0e 94 83 00 	call	0x106	; 0x106 <I2C_MASTER_getData>
 5a4:	0e 94 44 03 	call	0x688	; 0x688 <sendChar>
		
		
    }
 5a8:	ec cf       	rjmp	.-40     	; 0x582 <main+0x24>

000005aa <initUART>:
char readChar()
{
	while(!(UCSR0A & (1<<7)))
	{}
	return UDR0;
}
 5aa:	cf 92       	push	r12
 5ac:	df 92       	push	r13
 5ae:	ef 92       	push	r14
 5b0:	ff 92       	push	r15
 5b2:	0f 93       	push	r16
 5b4:	6b 01       	movw	r12, r22
 5b6:	7c 01       	movw	r14, r24
 5b8:	3c e2       	ldi	r19, 0x2C	; 44
 5ba:	c3 1a       	sub	r12, r19
 5bc:	31 e0       	ldi	r19, 0x01	; 1
 5be:	d3 0a       	sbc	r13, r19
 5c0:	e1 08       	sbc	r14, r1
 5c2:	f1 08       	sbc	r15, r1
 5c4:	35 ed       	ldi	r19, 0xD5	; 213
 5c6:	c3 16       	cp	r12, r19
 5c8:	30 ec       	ldi	r19, 0xC0	; 192
 5ca:	d3 06       	cpc	r13, r19
 5cc:	31 e0       	ldi	r19, 0x01	; 1
 5ce:	e3 06       	cpc	r14, r19
 5d0:	f1 04       	cpc	r15, r1
 5d2:	08 f0       	brcs	.+2      	; 0x5d6 <initUART+0x2c>
 5d4:	53 c0       	rjmp	.+166    	; 0x67c <initUART+0xd2>
 5d6:	45 50       	subi	r20, 0x05	; 5
 5d8:	44 30       	cpi	r20, 0x04	; 4
 5da:	08 f0       	brcs	.+2      	; 0x5de <initUART+0x34>
 5dc:	4f c0       	rjmp	.+158    	; 0x67c <initUART+0xd2>
 5de:	38 e1       	ldi	r19, 0x18	; 24
 5e0:	30 93 c1 00 	sts	0x00C1, r19	; 0x8000c1 <__DATA_REGION_ORIGIN__+0x61>
 5e4:	44 0f       	add	r20, r20
 5e6:	40 93 c2 00 	sts	0x00C2, r20	; 0x8000c2 <__DATA_REGION_ORIGIN__+0x62>
 5ea:	22 23       	and	r18, r18
 5ec:	29 f0       	breq	.+10     	; 0x5f8 <initUART+0x4e>
 5ee:	e1 ec       	ldi	r30, 0xC1	; 193
 5f0:	f0 e0       	ldi	r31, 0x00	; 0
 5f2:	20 81       	ld	r18, Z
 5f4:	20 68       	ori	r18, 0x80	; 128
 5f6:	20 83       	st	Z, r18
 5f8:	05 34       	cpi	r16, 0x45	; 69
 5fa:	31 f4       	brne	.+12     	; 0x608 <initUART+0x5e>
 5fc:	e2 ec       	ldi	r30, 0xC2	; 194
 5fe:	f0 e0       	ldi	r31, 0x00	; 0
 600:	20 81       	ld	r18, Z
 602:	20 62       	ori	r18, 0x20	; 32
 604:	20 83       	st	Z, r18
 606:	07 c0       	rjmp	.+14     	; 0x616 <initUART+0x6c>
 608:	0f 34       	cpi	r16, 0x4F	; 79
 60a:	29 f4       	brne	.+10     	; 0x616 <initUART+0x6c>
 60c:	e2 ec       	ldi	r30, 0xC2	; 194
 60e:	f0 e0       	ldi	r31, 0x00	; 0
 610:	20 81       	ld	r18, Z
 612:	20 63       	ori	r18, 0x30	; 48
 614:	20 83       	st	Z, r18
 616:	6b 01       	movw	r12, r22
 618:	7c 01       	movw	r14, r24
 61a:	20 e8       	ldi	r18, 0x80	; 128
 61c:	c2 0e       	add	r12, r18
 61e:	24 e8       	ldi	r18, 0x84	; 132
 620:	d2 1e       	adc	r13, r18
 622:	2e e1       	ldi	r18, 0x1E	; 30
 624:	e2 1e       	adc	r14, r18
 626:	f1 1c       	adc	r15, r1
 628:	cc 0c       	add	r12, r12
 62a:	dd 1c       	adc	r13, r13
 62c:	ee 1c       	adc	r14, r14
 62e:	ff 1c       	adc	r15, r15
 630:	cc 0c       	add	r12, r12
 632:	dd 1c       	adc	r13, r13
 634:	ee 1c       	adc	r14, r14
 636:	ff 1c       	adc	r15, r15
 638:	cc 0c       	add	r12, r12
 63a:	dd 1c       	adc	r13, r13
 63c:	ee 1c       	adc	r14, r14
 63e:	ff 1c       	adc	r15, r15
 640:	dc 01       	movw	r26, r24
 642:	cb 01       	movw	r24, r22
 644:	88 0f       	add	r24, r24
 646:	99 1f       	adc	r25, r25
 648:	aa 1f       	adc	r26, r26
 64a:	bb 1f       	adc	r27, r27
 64c:	88 0f       	add	r24, r24
 64e:	99 1f       	adc	r25, r25
 650:	aa 1f       	adc	r26, r26
 652:	bb 1f       	adc	r27, r27
 654:	9c 01       	movw	r18, r24
 656:	ad 01       	movw	r20, r26
 658:	22 0f       	add	r18, r18
 65a:	33 1f       	adc	r19, r19
 65c:	44 1f       	adc	r20, r20
 65e:	55 1f       	adc	r21, r21
 660:	22 0f       	add	r18, r18
 662:	33 1f       	adc	r19, r19
 664:	44 1f       	adc	r20, r20
 666:	55 1f       	adc	r21, r21
 668:	c7 01       	movw	r24, r14
 66a:	b6 01       	movw	r22, r12
 66c:	0e 94 4c 03 	call	0x698	; 0x698 <__udivmodsi4>
 670:	21 50       	subi	r18, 0x01	; 1
 672:	31 09       	sbc	r19, r1
 674:	30 93 c5 00 	sts	0x00C5, r19	; 0x8000c5 <__DATA_REGION_ORIGIN__+0x65>
 678:	20 93 c4 00 	sts	0x00C4, r18	; 0x8000c4 <__DATA_REGION_ORIGIN__+0x64>
 67c:	0f 91       	pop	r16
 67e:	ff 90       	pop	r15
 680:	ef 90       	pop	r14
 682:	df 90       	pop	r13
 684:	cf 90       	pop	r12
 686:	08 95       	ret

00000688 <sendChar>:
void sendChar(char sChar)
{
	while(!(UCSR0A & (1<<5)))
 688:	e0 ec       	ldi	r30, 0xC0	; 192
 68a:	f0 e0       	ldi	r31, 0x00	; 0
 68c:	90 81       	ld	r25, Z
 68e:	95 ff       	sbrs	r25, 5
 690:	fd cf       	rjmp	.-6      	; 0x68c <sendChar+0x4>
	{}
	UDR0 = sChar;
 692:	80 93 c6 00 	sts	0x00C6, r24	; 0x8000c6 <__DATA_REGION_ORIGIN__+0x66>
 696:	08 95       	ret

00000698 <__udivmodsi4>:
 698:	a1 e2       	ldi	r26, 0x21	; 33
 69a:	1a 2e       	mov	r1, r26
 69c:	aa 1b       	sub	r26, r26
 69e:	bb 1b       	sub	r27, r27
 6a0:	fd 01       	movw	r30, r26
 6a2:	0d c0       	rjmp	.+26     	; 0x6be <__udivmodsi4_ep>

000006a4 <__udivmodsi4_loop>:
 6a4:	aa 1f       	adc	r26, r26
 6a6:	bb 1f       	adc	r27, r27
 6a8:	ee 1f       	adc	r30, r30
 6aa:	ff 1f       	adc	r31, r31
 6ac:	a2 17       	cp	r26, r18
 6ae:	b3 07       	cpc	r27, r19
 6b0:	e4 07       	cpc	r30, r20
 6b2:	f5 07       	cpc	r31, r21
 6b4:	20 f0       	brcs	.+8      	; 0x6be <__udivmodsi4_ep>
 6b6:	a2 1b       	sub	r26, r18
 6b8:	b3 0b       	sbc	r27, r19
 6ba:	e4 0b       	sbc	r30, r20
 6bc:	f5 0b       	sbc	r31, r21

000006be <__udivmodsi4_ep>:
 6be:	66 1f       	adc	r22, r22
 6c0:	77 1f       	adc	r23, r23
 6c2:	88 1f       	adc	r24, r24
 6c4:	99 1f       	adc	r25, r25
 6c6:	1a 94       	dec	r1
 6c8:	69 f7       	brne	.-38     	; 0x6a4 <__udivmodsi4_loop>
 6ca:	60 95       	com	r22
 6cc:	70 95       	com	r23
 6ce:	80 95       	com	r24
 6d0:	90 95       	com	r25
 6d2:	9b 01       	movw	r18, r22
 6d4:	ac 01       	movw	r20, r24
 6d6:	bd 01       	movw	r22, r26
 6d8:	cf 01       	movw	r24, r30
 6da:	08 95       	ret

000006dc <_exit>:
 6dc:	f8 94       	cli

000006de <__stop_program>:
 6de:	ff cf       	rjmp	.-2      	; 0x6de <__stop_program>
